 YunStaff_d

 Timestamp is 5079674b (Sat Oct 13 21:06:19 2012)

 Preferred load address is 00400000

 Start         Length     Name                   Class
 0001:00000000 0005a637H .text                   CODE
 0001:0005a640 00001dc5H .text$x                 CODE
 0001:0005c410 000012e9H .text$yc                CODE
 0001:0005d700 000011f5H .text$yd                CODE
 0002:00000000 00000104H .CRT$XCA                DATA
 0002:00000104 00000139H .CRT$XCC                DATA
 0002:00000240 00000121H .CRT$XCL                DATA
 0002:00000364 0000010eH .CRT$XCU                DATA
 0002:00000474 00000104H .CRT$XCZ                DATA
 0002:00000578 00000104H .CRT$XIA                DATA
 0002:0000067c 00000113H .CRT$XIC                DATA
 0002:00000790 00000104H .CRT$XIY                DATA
 0002:00000894 00000104H .CRT$XIZ                DATA
 0002:00000998 00000104H .CRT$XPA                DATA
 0002:00000a9c 00000109H .CRT$XPX                DATA
 0002:00000ba8 00000104H .CRT$XPXA               DATA
 0002:00000cac 00000104H .CRT$XPZ                DATA
 0002:00000db0 00000104H .CRT$XTA                DATA
 0002:00000eb4 00000104H .CRT$XTZ                DATA
 0002:00000fc0 0000ed06H .rdata                  DATA
 0002:0000fcc8 0000016cH .rdata$debug            DATA
 0002:0000fe34 00001010H .rdata$r                DATA
 0002:00010e50 0000020cH .rdata$sxdata           DATA
 0002:0001105c 00000104H .rtc$IAA                DATA
 0002:00011160 00000104H .rtc$IMZ                DATA
 0002:00011264 00000104H .rtc$IZZ                DATA
 0002:00011368 00000104H .rtc$TAA                DATA
 0002:0001146c 00000104H .rtc$TMZ                DATA
 0002:00011570 00000104H .rtc$TZZ                DATA
 0002:00011678 00001cf3H .xdata$x                DATA
 0002:0001336b 00000000H .edata                  DATA
 0003:00000000 00001b65H .data                   DATA
 0003:00001b80 000024f0H .bss                    DATA
 0004:00000000 00000064H .idata$2                DATA
 0004:00000064 00000014H .idata$3                DATA
 0004:00000078 00000584H .idata$4                DATA
 0004:000005fc 00000584H .idata$5                DATA
 0004:00000b80 0000281cH .idata$6                DATA
 0005:00000000 00000169H .rsrc$01                DATA
 0005:00000170 00000439H .rsrc$02                DATA

  Address         Publics by Value              Rva+Base       Lib:Object

 0000:00000000       __except_list              00000000     <absolute>
 0000:00000038       ___safe_se_handler_count   00000038     <absolute>
 0000:00000000       ___ImageBase               00400000     <linker-defined>
 0001:00000320       _WinMain@16                00401320 f   YunStaff.obj
 0001:000005f0       ??0CYunStaffFrameWnd@@QAE@XZ 004015f0 f i YunStaff.obj
 0001:00000670       ??0INotifyUI@DuiLib@@QAE@XZ 00401670 f i YunStaff.obj
 0001:000006a0       ?GetWindowClassName@CYunStaffFrameWnd@@UBEPBDXZ 004016a0 f i YunStaff.obj
 0001:000006c0       ?GetClassStyle@CYunStaffFrameWnd@@UBEIXZ 004016c0 f i YunStaff.obj
 0001:000006e0       ?OnFinalMessage@CYunStaffFrameWnd@@UAEXPAUHWND__@@@Z 004016e0 f i YunStaff.obj
 0001:00000750       ?Notify@CYunStaffFrameWnd@@UAEXAAUtagTNotifyUI@DuiLib@@@Z 00401750 f i YunStaff.obj
 0001:00000c30       ?OnPrepare@CYunStaffFrameWnd@@QAEXXZ 00401c30 f i YunStaff.obj
 0001:00000c50       ?HandleMessage@CYunStaffFrameWnd@@UAEJIIJ@Z 00401c50 f i YunStaff.obj
 0001:00001090       ?OnCreate@CYunStaffFrameWnd@@QAEJIIJAAH@Z 00402090 f i YunStaff.obj
 0001:00001370       ??0STRINGorID@DuiLib@@QAE@PBD@Z 00402370 f i YunStaff.obj
 0001:000013a0       ?Init@CYunStaffFrameWnd@@QAEXXZ 004023a0 f i YunStaff.obj
 0001:00001480       ?OnClose@CYunStaffFrameWnd@@QAEJIIJAAH@Z 00402480 f i YunStaff.obj
 0001:000014b0       ?OnDestroy@CYunStaffFrameWnd@@QAEJIIJAAH@Z 004024b0 f i YunStaff.obj
 0001:00001500       ?OnNcActivate@CYunStaffFrameWnd@@QAEJIIJAAH@Z 00402500 f i YunStaff.obj
 0001:00001570       ?OnNcCalcSize@CYunStaffFrameWnd@@QAEJIIJAAH@Z 00402570 f i YunStaff.obj
 0001:00001590       ?OnNcPaint@CYunStaffFrameWnd@@QAEJIIJAAH@Z 00402590 f i YunStaff.obj
 0001:000015b0       ?OnNcHitTest@CYunStaffFrameWnd@@QAEJIIJAAH@Z 004025b0 f i YunStaff.obj
 0001:000019a0       __tcscmp                   004029a0 f i YunStaff.obj
 0001:000019d0       ?OnSize@CYunStaffFrameWnd@@QAEJIIJAAH@Z 004029d0 f i YunStaff.obj
 0001:00001c00       ?OnGetMinMaxInfo@CYunStaffFrameWnd@@QAEJIIJAAH@Z 00402c00 f i YunStaff.obj
 0001:00001db0       ?OnSysCommand@CYunStaffFrameWnd@@QAEJIIJAAH@Z 00402db0 f i YunStaff.obj
 0001:00001ff0       ??_GCYunStaffFrameWnd@@QAEPAXI@Z 00402ff0 f i YunStaff.obj
 0001:00002040       ??0CDialogBuilderCallbackEx@@QAE@XZ 00403040 f i YunStaff.obj
 0001:00002080       ??0IDialogBuilderCallback@DuiLib@@QAE@XZ 00403080 f i YunStaff.obj
 0001:000020b0       ?CreateControl@CDialogBuilderCallbackEx@@UAEPAVCControlUI@DuiLib@@PBD@Z 004030b0 f i YunStaff.obj
 0001:00002190       ??0ComputerExamineUI@@QAE@XZ 00403190 f i YunStaff.obj
 0001:00002390       ??_EComputerExamineUI@@UAEPAXI@Z 00403390 f i YunStaff.obj
 0001:00002390       ??_GComputerExamineUI@@UAEPAXI@Z 00403390 f i YunStaff.obj
 0001:000023e0       ??1ComputerExamineUI@@UAE@XZ 004033e0 f i YunStaff.obj
 0001:00002420       ??1CYunStaffFrameWnd@@QAE@XZ 00403420 f i YunStaff.obj
 0001:00002460       ??$?6U?$char_traits@D@std@@@std@@YAAAV?$basic_ostream@DU?$char_traits@D@std@@@0@AAV10@PBD@Z 00403460 f i YunStaff.obj
 0001:000028f0       ?length@?$char_traits@D@std@@SAIPBD@Z 004038f0 f i YunStaff.obj
 0001:00002910       ?eq_int_type@?$char_traits@D@std@@SA_NABH0@Z 00403910 f i YunStaff.obj
 0001:00002930       ?eof@?$char_traits@D@std@@SAHXZ 00403930 f i YunStaff.obj
 0001:00002940       ?flags@ios_base@std@@QBEHXZ 00403940 f i YunStaff.obj
 0001:00002960       ?width@ios_base@std@@QBE_JXZ 00403960 f i YunStaff.obj
 0001:00002990       ?width@ios_base@std@@QAE_J_J@Z 00403990 f i YunStaff.obj
 0001:000029f0       ?setstate@?$basic_ios@DU?$char_traits@D@std@@@std@@QAEXH_N@Z 004039f0 f i YunStaff.obj
 0001:00002a40       ?rdstate@ios_base@std@@QBEHXZ 00403a40 f i YunStaff.obj
 0001:00002a60       ?rdbuf@?$basic_ios@DU?$char_traits@D@std@@@std@@QBEPAV?$basic_streambuf@DU?$char_traits@D@std@@@2@XZ 00403a60 f i YunStaff.obj
 0001:00002a80       ?clear@?$basic_ios@DU?$char_traits@D@std@@@std@@QAEXH_N@Z 00403a80 f i YunStaff.obj
 0001:00002af0       ?clear@ios_base@std@@QAEXH_N@Z 00403af0 f i YunStaff.obj
 0001:00002c40       ??0runtime_error@std@@QAE@ABV01@@Z 00403c40 f i YunStaff.obj
 0001:00002c90       ??_Gruntime_error@std@@UAEPAXI@Z 00403c90 f i YunStaff.obj
 0001:00002c90       ??_Eruntime_error@std@@UAEPAXI@Z 00403c90 f i YunStaff.obj
 0001:00002ce0       ??1runtime_error@std@@UAE@XZ 00403ce0 f i YunStaff.obj
 0001:00002d10       ?make_error_code@std@@YA?AVerror_code@1@W4io_errc@31@@Z 00403d10 f i YunStaff.obj
 0001:00002d40       ??0error_code@std@@QAE@HABVerror_category@1@@Z 00403d40 f i YunStaff.obj
 0001:00002d80       ??0failure@ios_base@std@@QAE@PBDABVerror_code@2@@Z 00403d80 f i YunStaff.obj
 0001:00002dd0       ??0system_error@std@@QAE@Verror_code@1@PBD@Z 00403dd0 f i YunStaff.obj
 0001:00002e80       ??0runtime_error@std@@QAE@PBD@Z 00403e80 f i YunStaff.obj
 0001:00002ed0       ?_Makestr@system_error@std@@AAEXXZ 00403ed0 f i YunStaff.obj
 0001:00002ef0       ??_Gsystem_error@std@@UAEPAXI@Z 00403ef0 f i YunStaff.obj
 0001:00002ef0       ??_Esystem_error@std@@UAEPAXI@Z 00403ef0 f i YunStaff.obj
 0001:00002f40       ??1system_error@std@@UAE@XZ 00403f40 f i YunStaff.obj
 0001:00002f70       ??_Efailure@ios_base@std@@UAEPAXI@Z 00403f70 f i YunStaff.obj
 0001:00002f70       ??_Gfailure@ios_base@std@@UAEPAXI@Z 00403f70 f i YunStaff.obj
 0001:00002fc0       ??1failure@ios_base@std@@UAE@XZ 00403fc0 f i YunStaff.obj
 0001:00002ff0       ??0failure@ios_base@std@@QAE@ABV012@@Z 00403ff0 f i YunStaff.obj
 0001:00003040       ??0system_error@std@@QAE@ABV01@@Z 00404040 f i YunStaff.obj
 0001:000030a0       ?sputc@?$basic_streambuf@DU?$char_traits@D@std@@@std@@QAEHD@Z 004040a0 f i YunStaff.obj
 0001:00003160       ?to_int_type@?$char_traits@D@std@@SAHABD@Z 00404160 f i YunStaff.obj
 0001:00003170       ?_Pnavail@?$basic_streambuf@DU?$char_traits@D@std@@@std@@IBE_JXZ 00404170 f i YunStaff.obj
 0001:000031c0       ??0sentry@?$basic_ostream@DU?$char_traits@D@std@@@std@@QAE@AAV12@@Z 004041c0 f i YunStaff.obj
 0001:000032c0       ?good@ios_base@std@@QBE_NXZ 004042c0 f i YunStaff.obj
 0001:00003300       ?flush@?$basic_ostream@DU?$char_traits@D@std@@@std@@QAEAAV12@XZ 00404300 f i YunStaff.obj
 0001:000033b0       ?fail@ios_base@std@@QBE_NXZ 004043b0 f i YunStaff.obj
 0001:000033f0       ?pubsync@?$basic_streambuf@DU?$char_traits@D@std@@@std@@QAEHXZ 004043f0 f i YunStaff.obj
 0001:00003440       ??1sentry@?$basic_ostream@DU?$char_traits@D@std@@@std@@QAE@XZ 00404440 f i YunStaff.obj
 0001:000034d0       ??Bsentry@?$basic_ostream@DU?$char_traits@D@std@@@std@@QBEPQ_Bool_struct@2@HXZ 004044d0 f i YunStaff.obj
 0001:00003500       ?_Osfx@?$basic_ostream@DU?$char_traits@D@std@@@std@@QAEXXZ 00404500 f i YunStaff.obj
 0001:000035d0       ?tie@?$basic_ios@DU?$char_traits@D@std@@@std@@QBEPAV?$basic_ostream@DU?$char_traits@D@std@@@2@XZ 004045d0 f i YunStaff.obj
 0001:000035f0       ?_Pninc@?$basic_streambuf@DU?$char_traits@D@std@@@std@@IAEPADXZ 004045f0 f i YunStaff.obj
 0001:00003660       ??0_Sentry_base@?$basic_ostream@DU?$char_traits@D@std@@@std@@QAE@AAV12@@Z 00404660 f i YunStaff.obj
 0001:00003700       ??1_Sentry_base@?$basic_ostream@DU?$char_traits@D@std@@@std@@QAE@XZ 00404700 f i YunStaff.obj
 0001:00003790       ?fill@?$basic_ios@DU?$char_traits@D@std@@@std@@QBEDXZ 00404790 f i YunStaff.obj
 0001:000037b0       ?sputn@?$basic_streambuf@DU?$char_traits@D@std@@@std@@QAE_JPBD_J@Z 004047b0 f i YunStaff.obj
 0001:00003802       _ShowWindow@8              00404802 f   user32:USER32.dll
 0001:00003808       _PostQuitMessage@4         00404808 f   user32:USER32.dll
 0001:0000380e       _SetWindowLongA@12         0040480e f   user32:USER32.dll
 0001:00003814       _GetWindowLongA@8          00404814 f   user32:USER32.dll
 0001:0000381a       _IsIconic@4                0040481a f   user32:USER32.dll
 0001:00003820       _IsZoomed@4                00404820 f   user32:USER32.dll
 0001:00003826       _GetClientRect@8           00404826 f   user32:USER32.dll
 0001:0000382c       _ScreenToClient@8          0040482c f   user32:USER32.dll
 0001:00003832       _SetWindowRgn@12           00404832 f   user32:USER32.dll
 0001:00003838       _GetWindowRect@8           00404838 f   user32:USER32.dll
 0001:0000383e       _GetMonitorInfoA@8         0040483e f   user32:USER32.dll
 0001:00003844       _MonitorFromWindow@8       00404844 f   user32:USER32.dll
 0001:0000384a       _DeleteObject@4            0040484a f   gdi32:GDI32.dll
 0001:00003850       _CreateRoundRectRgn@24     00404850 f   gdi32:GDI32.dll
 0001:00003856       _CoUninitialize@0          00404856 f   ole32:ole32.dll
 0001:0000385c       _CoInitialize@4            0040485c f   ole32:ole32.dll
 0001:00003862       ?MessageLoop@CPaintManagerUI@DuiLib@@SAXXZ 00404862 f   DuiLib_d:DuiLib_d.dll
 0001:00003868       ??BCWindowWnd@DuiLib@@QBEPAUHWND__@@XZ 00404868 f   DuiLib_d:DuiLib_d.dll
 0001:0000386e       ?CenterWindow@CWindowWnd@DuiLib@@QAEXXZ 0040486e f   DuiLib_d:DuiLib_d.dll
 0001:00003874       ?Create@CWindowWnd@DuiLib@@QAEPAUHWND__@@PAU3@PBDKKHHHHPAUHMENU__@@@Z 00404874 f   DuiLib_d:DuiLib_d.dll
 0001:0000387a       ?SetResourcePath@CPaintManagerUI@DuiLib@@SAXPBD@Z 0040487a f   DuiLib_d:DuiLib_d.dll
 0001:00003880       ??HCDuiString@DuiLib@@QBE?AV01@PBD@Z 00404880 f   DuiLib_d:DuiLib_d.dll
 0001:00003886       ??1CDuiString@DuiLib@@QAE@XZ 00404886 f   DuiLib_d:DuiLib_d.dll
 0001:0000388c       ??BCDuiString@DuiLib@@QBEPBDXZ 0040488c f   DuiLib_d:DuiLib_d.dll
 0001:00003892       ?GetInstancePath@CPaintManagerUI@DuiLib@@SA?AVCDuiString@2@XZ 00404892 f   DuiLib_d:DuiLib_d.dll
 0001:00003898       ?SetInstance@CPaintManagerUI@DuiLib@@SAXPAUHINSTANCE__@@@Z 00404898 f   DuiLib_d:DuiLib_d.dll
 0001:0000389e       ??0CPaintManagerUI@DuiLib@@QAE@XZ 0040489e f   DuiLib_d:DuiLib_d.dll
 0001:000038a4       ??0CWindowWnd@DuiLib@@QAE@XZ 004048a4 f   DuiLib_d:DuiLib_d.dll
 0001:000038aa       ?GetSuperClassName@CWindowWnd@DuiLib@@MBEPBDXZ 004048aa f   DuiLib_d:DuiLib_d.dll
 0001:000038b0       ?SelectItem@CTabLayoutUI@DuiLib@@QAE_NH@Z 004048b0 f   DuiLib_d:DuiLib_d.dll
 0001:000038b6       ?FindControl@CPaintManagerUI@DuiLib@@QBEPAVCControlUI@2@PBD@Z 004048b6 f   DuiLib_d:DuiLib_d.dll
 0001:000038bc       ?SendMessageA@CWindowWnd@DuiLib@@QAEJIIJ@Z 004048bc f   DuiLib_d:DuiLib_d.dll
 0001:000038c2       ??8CDuiString@DuiLib@@QBE_NPBD@Z 004048c2 f   DuiLib_d:DuiLib_d.dll
 0001:000038c8       ?HandleMessage@CWindowWnd@DuiLib@@MAEJIIJ@Z 004048c8 f   DuiLib_d:DuiLib_d.dll
 0001:000038ce       ?MessageHandler@CPaintManagerUI@DuiLib@@QAE_NIIJAAJ@Z 004048ce f   DuiLib_d:DuiLib_d.dll
 0001:000038d4       ??1CDialogBuilder@DuiLib@@QAE@XZ 004048d4 f   DuiLib_d:DuiLib_d.dll
 0001:000038da       ?AddNotifier@CPaintManagerUI@DuiLib@@QAE_NPAVINotifyUI@2@@Z 004048da f   DuiLib_d:DuiLib_d.dll
 0001:000038e0       ?AttachDialog@CPaintManagerUI@DuiLib@@QAE_NPAVCControlUI@2@@Z 004048e0 f   DuiLib_d:DuiLib_d.dll
 0001:000038e6       ?Create@CDialogBuilder@DuiLib@@QAEPAVCControlUI@2@VSTRINGorID@2@PBDPAVIDialogBuilderCallback@2@PAVCPaintManagerUI@2@PAV32@@Z 004048e6 f   DuiLib_d:DuiLib_d.dll
 0001:000038ec       ??0CDialogBuilder@DuiLib@@QAE@XZ 004048ec f   DuiLib_d:DuiLib_d.dll
 0001:000038f2       ?Init@CPaintManagerUI@DuiLib@@QAEXPAUHWND__@@@Z 004048f2 f   DuiLib_d:DuiLib_d.dll
 0001:000038f8       ?FindControl@CPaintManagerUI@DuiLib@@QBEPAVCControlUI@2@UtagPOINT@@@Z 004048f8 f   DuiLib_d:DuiLib_d.dll
 0001:000038fe       ?GetCaptionRect@CPaintManagerUI@DuiLib@@QAEAAUtagRECT@@XZ 004048fe f   DuiLib_d:DuiLib_d.dll
 0001:00003904       ?GetSizeBox@CPaintManagerUI@DuiLib@@QAEAAUtagRECT@@XZ 00404904 f   DuiLib_d:DuiLib_d.dll
 0001:0000390a       ?Offset@CDuiRect@DuiLib@@QAEXHH@Z 0040490a f   DuiLib_d:DuiLib_d.dll
 0001:00003910       ??0CDuiRect@DuiLib@@QAE@XZ 00404910 f   DuiLib_d:DuiLib_d.dll
 0001:00003916       ?GetRoundCorner@CPaintManagerUI@DuiLib@@QBE?AUtagSIZE@@XZ 00404916 f   DuiLib_d:DuiLib_d.dll
 0001:0000391c       ??0CDuiRect@DuiLib@@QAE@ABUtagRECT@@@Z 0040491c f   DuiLib_d:DuiLib_d.dll
 0001:00003922       ??1CContainerUI@DuiLib@@UAE@XZ 00404922 f   DuiLib_d:DuiLib_d.dll
 0001:00003928       ?RemoveAll@CContainerUI@DuiLib@@UAEXXZ 00404928 f   DuiLib_d:DuiLib_d.dll
 0001:0000392e       ?Add@CContainerUI@DuiLib@@UAE_NPAVCControlUI@2@@Z 0040492e f   DuiLib_d:DuiLib_d.dll
 0001:00003934       ??0CContainerUI@DuiLib@@QAE@XZ 00404934 f   DuiLib_d:DuiLib_d.dll
 0001:0000393a       ?GetName@CControlUI@DuiLib@@UBE?AVCDuiString@2@XZ 0040493a f   DuiLib_d:DuiLib_d.dll
 0001:00003940       ?SetName@CControlUI@DuiLib@@UAEXPBD@Z 00404940 f   DuiLib_d:DuiLib_d.dll
 0001:00003946       ?GetClass@CContainerUI@DuiLib@@UBEPBDXZ 00404946 f   DuiLib_d:DuiLib_d.dll
 0001:0000394c       ?GetInterface@CContainerUI@DuiLib@@UAEPAXPBD@Z 0040494c f   DuiLib_d:DuiLib_d.dll
 0001:00003952       ?GetControlFlags@CControlUI@DuiLib@@UBEIXZ 00404952 f   DuiLib_d:DuiLib_d.dll
 0001:00003958       ?Activate@CControlUI@DuiLib@@UAE_NXZ 00404958 f   DuiLib_d:DuiLib_d.dll
 0001:0000395e       ?GetManager@CControlUI@DuiLib@@UBEPAVCPaintManagerUI@2@XZ 0040495e f   DuiLib_d:DuiLib_d.dll
 0001:00003964       ?SetManager@CContainerUI@DuiLib@@UAEXPAVCPaintManagerUI@2@PAVCControlUI@2@_N@Z 00404964 f   DuiLib_d:DuiLib_d.dll
 0001:0000396a       ?GetParent@CControlUI@DuiLib@@UBEPAV12@XZ 0040496a f   DuiLib_d:DuiLib_d.dll
 0001:00003970       ?GetText@CControlUI@DuiLib@@UBE?AVCDuiString@2@XZ 00404970 f   DuiLib_d:DuiLib_d.dll
 0001:00003976       ?SetText@CControlUI@DuiLib@@UAEXPBD@Z 00404976 f   DuiLib_d:DuiLib_d.dll
 0001:0000397c       ?GetPos@CControlUI@DuiLib@@UBEABUtagRECT@@XZ 0040497c f   DuiLib_d:DuiLib_d.dll
 0001:00003982       ?SetPos@CContainerUI@DuiLib@@UAEXUtagRECT@@@Z 00404982 f   DuiLib_d:DuiLib_d.dll
 0001:00003988       ?GetWidth@CControlUI@DuiLib@@UBEHXZ 00404988 f   DuiLib_d:DuiLib_d.dll
 0001:0000398e       ?GetHeight@CControlUI@DuiLib@@UBEHXZ 0040498e f   DuiLib_d:DuiLib_d.dll
 0001:00003994       ?GetX@CControlUI@DuiLib@@UBEHXZ 00404994 f   DuiLib_d:DuiLib_d.dll
 0001:0000399a       ?GetY@CControlUI@DuiLib@@UBEHXZ 0040499a f   DuiLib_d:DuiLib_d.dll
 0001:000039a0       ?GetPadding@CControlUI@DuiLib@@UBE?AUtagRECT@@XZ 004049a0 f   DuiLib_d:DuiLib_d.dll
 0001:000039a6       ?SetPadding@CControlUI@DuiLib@@UAEXUtagRECT@@@Z 004049a6 f   DuiLib_d:DuiLib_d.dll
 0001:000039ac       ?GetFixedXY@CControlUI@DuiLib@@UBE?AUtagSIZE@@XZ 004049ac f   DuiLib_d:DuiLib_d.dll
 0001:000039b2       ?SetFixedXY@CControlUI@DuiLib@@UAEXUtagSIZE@@@Z 004049b2 f   DuiLib_d:DuiLib_d.dll
 0001:000039b8       ?GetFixedWidth@CControlUI@DuiLib@@UBEHXZ 004049b8 f   DuiLib_d:DuiLib_d.dll
 0001:000039be       ?SetFixedWidth@CControlUI@DuiLib@@UAEXH@Z 004049be f   DuiLib_d:DuiLib_d.dll
 0001:000039c4       ?GetFixedHeight@CControlUI@DuiLib@@UBEHXZ 004049c4 f   DuiLib_d:DuiLib_d.dll
 0001:000039ca       ?SetFixedHeight@CControlUI@DuiLib@@UAEXH@Z 004049ca f   DuiLib_d:DuiLib_d.dll
 0001:000039d0       ?GetMinWidth@CControlUI@DuiLib@@UBEHXZ 004049d0 f   DuiLib_d:DuiLib_d.dll
 0001:000039d6       ?SetMinWidth@CControlUI@DuiLib@@UAEXH@Z 004049d6 f   DuiLib_d:DuiLib_d.dll
 0001:000039dc       ?GetMaxWidth@CControlUI@DuiLib@@UBEHXZ 004049dc f   DuiLib_d:DuiLib_d.dll
 0001:000039e2       ?SetMaxWidth@CControlUI@DuiLib@@UAEXH@Z 004049e2 f   DuiLib_d:DuiLib_d.dll
 0001:000039e8       ?GetMinHeight@CControlUI@DuiLib@@UBEHXZ 004049e8 f   DuiLib_d:DuiLib_d.dll
 0001:000039ee       ?SetMinHeight@CControlUI@DuiLib@@UAEXH@Z 004049ee f   DuiLib_d:DuiLib_d.dll
 0001:000039f4       ?GetMaxHeight@CControlUI@DuiLib@@UBEHXZ 004049f4 f   DuiLib_d:DuiLib_d.dll
 0001:000039fa       ?SetMaxHeight@CControlUI@DuiLib@@UAEXH@Z 004049fa f   DuiLib_d:DuiLib_d.dll
 0001:00003a00       ?SetRelativePos@CControlUI@DuiLib@@UAEXUtagSIZE@@0@Z 00404a00 f   DuiLib_d:DuiLib_d.dll
 0001:00003a06       ?SetRelativeParentSize@CControlUI@DuiLib@@UAEXUtagSIZE@@@Z 00404a06 f   DuiLib_d:DuiLib_d.dll
 0001:00003a0c       ?GetRelativePos@CControlUI@DuiLib@@UBE?AUtagTRelativePosUI@2@XZ 00404a0c f   DuiLib_d:DuiLib_d.dll
 0001:00003a12       ?IsRelativePos@CControlUI@DuiLib@@UBE_NXZ 00404a12 f   DuiLib_d:DuiLib_d.dll
 0001:00003a18       ?GetToolTip@CControlUI@DuiLib@@UBE?AVCDuiString@2@XZ 00404a18 f   DuiLib_d:DuiLib_d.dll
 0001:00003a1e       ?SetToolTip@CControlUI@DuiLib@@UAEXPBD@Z 00404a1e f   DuiLib_d:DuiLib_d.dll
 0001:00003a24       ?GetShortcut@CControlUI@DuiLib@@UBEDXZ 00404a24 f   DuiLib_d:DuiLib_d.dll
 0001:00003a2a       ?SetShortcut@CControlUI@DuiLib@@UAEXD@Z 00404a2a f   DuiLib_d:DuiLib_d.dll
 0001:00003a30       ?IsContextMenuUsed@CControlUI@DuiLib@@UBE_NXZ 00404a30 f   DuiLib_d:DuiLib_d.dll
 0001:00003a36       ?SetContextMenuUsed@CControlUI@DuiLib@@UAEX_N@Z 00404a36 f   DuiLib_d:DuiLib_d.dll
 0001:00003a3c       ?GetUserData@CControlUI@DuiLib@@UAEABVCDuiString@2@XZ 00404a3c f   DuiLib_d:DuiLib_d.dll
 0001:00003a42       ?SetUserData@CControlUI@DuiLib@@UAEXPBD@Z 00404a42 f   DuiLib_d:DuiLib_d.dll
 0001:00003a48       ?GetTag@CControlUI@DuiLib@@UBEIXZ 00404a48 f   DuiLib_d:DuiLib_d.dll
 0001:00003a4e       ?SetTag@CControlUI@DuiLib@@UAEXI@Z 00404a4e f   DuiLib_d:DuiLib_d.dll
 0001:00003a54       ?IsVisible@CControlUI@DuiLib@@UBE_NXZ 00404a54 f   DuiLib_d:DuiLib_d.dll
 0001:00003a5a       ?SetVisible@CContainerUI@DuiLib@@UAEX_N@Z 00404a5a f   DuiLib_d:DuiLib_d.dll
 0001:00003a60       ?SetInternVisible@CContainerUI@DuiLib@@UAEX_N@Z 00404a60 f   DuiLib_d:DuiLib_d.dll
 0001:00003a66       ?IsEnabled@CControlUI@DuiLib@@UBE_NXZ 00404a66 f   DuiLib_d:DuiLib_d.dll
 0001:00003a6c       ?SetEnabled@CControlUI@DuiLib@@UAEX_N@Z 00404a6c f   DuiLib_d:DuiLib_d.dll
 0001:00003a72       ?IsMouseEnabled@CControlUI@DuiLib@@UBE_NXZ 00404a72 f   DuiLib_d:DuiLib_d.dll
 0001:00003a78       ?SetMouseEnabled@CContainerUI@DuiLib@@UAEX_N@Z 00404a78 f   DuiLib_d:DuiLib_d.dll
 0001:00003a7e       ?IsKeyboardEnabled@CControlUI@DuiLib@@UBE_NXZ 00404a7e f   DuiLib_d:DuiLib_d.dll
 0001:00003a84       ?SetKeyboardEnabled@CControlUI@DuiLib@@UAEX_N@Z 00404a84 f   DuiLib_d:DuiLib_d.dll
 0001:00003a8a       ?IsFocused@CControlUI@DuiLib@@UBE_NXZ 00404a8a f   DuiLib_d:DuiLib_d.dll
 0001:00003a90       ?SetFocus@CControlUI@DuiLib@@UAEXXZ 00404a90 f   DuiLib_d:DuiLib_d.dll
 0001:00003a96       ?IsFloat@CControlUI@DuiLib@@UBE_NXZ 00404a96 f   DuiLib_d:DuiLib_d.dll
 0001:00003a9c       ?SetFloat@CControlUI@DuiLib@@UAEX_N@Z 00404a9c f   DuiLib_d:DuiLib_d.dll
 0001:00003aa2       ?FindControl@CContainerUI@DuiLib@@UAEPAVCControlUI@2@P6GPAV32@PAV32@PAX@Z1I@Z 00404aa2 f   DuiLib_d:DuiLib_d.dll
 0001:00003aa8       ?Init@CControlUI@DuiLib@@UAEXXZ 00404aa8 f   DuiLib_d:DuiLib_d.dll
 0001:00003aae       ?DoInit@CControlUI@DuiLib@@UAEXXZ 00404aae f   DuiLib_d:DuiLib_d.dll
 0001:00003ab4       ?Event@CControlUI@DuiLib@@UAEXAAUtagTEventUI@2@@Z 00404ab4 f   DuiLib_d:DuiLib_d.dll
 0001:00003aba       ?DoEvent@CContainerUI@DuiLib@@UAEXAAUtagTEventUI@2@@Z 00404aba f   DuiLib_d:DuiLib_d.dll
 0001:00003ac0       ?SetAttribute@CContainerUI@DuiLib@@UAEXPBD0@Z 00404ac0 f   DuiLib_d:DuiLib_d.dll
 0001:00003ac6       ?EstimateSize@CControlUI@DuiLib@@UAE?AUtagSIZE@@U3@@Z 00404ac6 f   DuiLib_d:DuiLib_d.dll
 0001:00003acc       ?DoPaint@CContainerUI@DuiLib@@UAEXPAUHDC__@@ABUtagRECT@@@Z 00404acc f   DuiLib_d:DuiLib_d.dll
 0001:00003ad2       ?PaintBkColor@CControlUI@DuiLib@@UAEXPAUHDC__@@@Z 00404ad2 f   DuiLib_d:DuiLib_d.dll
 0001:00003ad8       ?PaintBkImage@CControlUI@DuiLib@@UAEXPAUHDC__@@@Z 00404ad8 f   DuiLib_d:DuiLib_d.dll
 0001:00003ade       ?PaintStatusImage@CControlUI@DuiLib@@UAEXPAUHDC__@@@Z 00404ade f   DuiLib_d:DuiLib_d.dll
 0001:00003ae4       ?PaintText@CControlUI@DuiLib@@UAEXPAUHDC__@@@Z 00404ae4 f   DuiLib_d:DuiLib_d.dll
 0001:00003aea       ?PaintBorder@CControlUI@DuiLib@@UAEXPAUHDC__@@@Z 00404aea f   DuiLib_d:DuiLib_d.dll
 0001:00003af0       ?DoPostPaint@CControlUI@DuiLib@@UAEXPAUHDC__@@ABUtagRECT@@@Z 00404af0 f   DuiLib_d:DuiLib_d.dll
 0001:00003af6       ?GetInset@CContainerUI@DuiLib@@UBE?AUtagRECT@@XZ 00404af6 f   DuiLib_d:DuiLib_d.dll
 0001:00003afc       ?SetInset@CContainerUI@DuiLib@@UAEXUtagRECT@@@Z 00404afc f   DuiLib_d:DuiLib_d.dll
 0001:00003b02       ?GetChildPadding@CContainerUI@DuiLib@@UBEHXZ 00404b02 f   DuiLib_d:DuiLib_d.dll
 0001:00003b08       ?SetChildPadding@CContainerUI@DuiLib@@UAEXH@Z 00404b08 f   DuiLib_d:DuiLib_d.dll
 0001:00003b0e       ?IsAutoDestroy@CContainerUI@DuiLib@@UBE_NXZ 00404b0e f   DuiLib_d:DuiLib_d.dll
 0001:00003b14       ?SetAutoDestroy@CContainerUI@DuiLib@@UAEX_N@Z 00404b14 f   DuiLib_d:DuiLib_d.dll
 0001:00003b1a       ?IsDelayedDestroy@CContainerUI@DuiLib@@UBE_NXZ 00404b1a f   DuiLib_d:DuiLib_d.dll
 0001:00003b20       ?SetDelayedDestroy@CContainerUI@DuiLib@@UAEX_N@Z 00404b20 f   DuiLib_d:DuiLib_d.dll
 0001:00003b26       ?IsMouseChildEnabled@CContainerUI@DuiLib@@UBE_NXZ 00404b26 f   DuiLib_d:DuiLib_d.dll
 0001:00003b2c       ?SetMouseChildEnabled@CContainerUI@DuiLib@@UAEX_N@Z 00404b2c f   DuiLib_d:DuiLib_d.dll
 0001:00003b32       ?FindSelectable@CContainerUI@DuiLib@@UBEHH_N@Z 00404b32 f   DuiLib_d:DuiLib_d.dll
 0001:00003b38       ?GetScrollPos@CContainerUI@DuiLib@@UBE?AUtagSIZE@@XZ 00404b38 f   DuiLib_d:DuiLib_d.dll
 0001:00003b3e       ?GetScrollRange@CContainerUI@DuiLib@@UBE?AUtagSIZE@@XZ 00404b3e f   DuiLib_d:DuiLib_d.dll
 0001:00003b44       ?SetScrollPos@CContainerUI@DuiLib@@UAEXUtagSIZE@@@Z 00404b44 f   DuiLib_d:DuiLib_d.dll
 0001:00003b4a       ?LineUp@CContainerUI@DuiLib@@UAEXXZ 00404b4a f   DuiLib_d:DuiLib_d.dll
 0001:00003b50       ?LineDown@CContainerUI@DuiLib@@UAEXXZ 00404b50 f   DuiLib_d:DuiLib_d.dll
 0001:00003b56       ?PageUp@CContainerUI@DuiLib@@UAEXXZ 00404b56 f   DuiLib_d:DuiLib_d.dll
 0001:00003b5c       ?PageDown@CContainerUI@DuiLib@@UAEXXZ 00404b5c f   DuiLib_d:DuiLib_d.dll
 0001:00003b62       ?HomeUp@CContainerUI@DuiLib@@UAEXXZ 00404b62 f   DuiLib_d:DuiLib_d.dll
 0001:00003b68       ?EndDown@CContainerUI@DuiLib@@UAEXXZ 00404b68 f   DuiLib_d:DuiLib_d.dll
 0001:00003b6e       ?LineLeft@CContainerUI@DuiLib@@UAEXXZ 00404b6e f   DuiLib_d:DuiLib_d.dll
 0001:00003b74       ?LineRight@CContainerUI@DuiLib@@UAEXXZ 00404b74 f   DuiLib_d:DuiLib_d.dll
 0001:00003b7a       ?PageLeft@CContainerUI@DuiLib@@UAEXXZ 00404b7a f   DuiLib_d:DuiLib_d.dll
 0001:00003b80       ?PageRight@CContainerUI@DuiLib@@UAEXXZ 00404b80 f   DuiLib_d:DuiLib_d.dll
 0001:00003b86       ?HomeLeft@CContainerUI@DuiLib@@UAEXXZ 00404b86 f   DuiLib_d:DuiLib_d.dll
 0001:00003b8c       ?EndRight@CContainerUI@DuiLib@@UAEXXZ 00404b8c f   DuiLib_d:DuiLib_d.dll
 0001:00003b92       ?EnableScrollBar@CContainerUI@DuiLib@@UAEX_N0@Z 00404b92 f   DuiLib_d:DuiLib_d.dll
 0001:00003b98       ?GetVerticalScrollBar@CContainerUI@DuiLib@@UBEPAVCScrollBarUI@2@XZ 00404b98 f   DuiLib_d:DuiLib_d.dll
 0001:00003b9e       ?GetHorizontalScrollBar@CContainerUI@DuiLib@@UBEPAVCScrollBarUI@2@XZ 00404b9e f   DuiLib_d:DuiLib_d.dll
 0001:00003ba4       ?SetFloatPos@CContainerUI@DuiLib@@MAEXH@Z 00404ba4 f   DuiLib_d:DuiLib_d.dll
 0001:00003baa       ?ProcessScrollBar@CContainerUI@DuiLib@@MAEXUtagRECT@@HH@Z 00404baa f   DuiLib_d:DuiLib_d.dll
 0001:00003bb0       ?GetItemAt@CContainerUI@DuiLib@@UBEPAVCControlUI@2@H@Z 00404bb0 f   DuiLib_d:DuiLib_d.dll
 0001:00003bb6       ?GetItemIndex@CContainerUI@DuiLib@@UBEHPAVCControlUI@2@@Z 00404bb6 f   DuiLib_d:DuiLib_d.dll
 0001:00003bbc       ?SetItemIndex@CContainerUI@DuiLib@@UAE_NPAVCControlUI@2@H@Z 00404bbc f   DuiLib_d:DuiLib_d.dll
 0001:00003bc2       ?GetCount@CContainerUI@DuiLib@@UBEHXZ 00404bc2 f   DuiLib_d:DuiLib_d.dll
 0001:00003bc8       ?AddAt@CContainerUI@DuiLib@@UAE_NPAVCControlUI@2@H@Z 00404bc8 f   DuiLib_d:DuiLib_d.dll
 0001:00003bce       ?Remove@CContainerUI@DuiLib@@UAE_NPAVCControlUI@2@@Z 00404bce f   DuiLib_d:DuiLib_d.dll
 0001:00003bd4       ?RemoveAt@CContainerUI@DuiLib@@UAE_NH@Z 00404bd4 f   DuiLib_d:DuiLib_d.dll
 0001:00003bda       ??1CPaintManagerUI@DuiLib@@QAE@XZ 00404bda f   DuiLib_d:DuiLib_d.dll
 0001:00003be0       ??2@YAPAXI@Z               00404be0 f   LIBCMTD:new.obj
 0001:00003c60       ??0bad_alloc@std@@QAE@XZ   00404c60 f i LIBCMTD:new.obj
 0001:00003c90       ??1bad_alloc@std@@UAE@XZ   00404c90 f i LIBCMTD:new.obj
 0001:00003cb0       ??_Ebad_alloc@std@@UAEPAXI@Z 00404cb0 f i LIBCMTD:new.obj
 0001:00003cb0       ??_Gbad_alloc@std@@UAEPAXI@Z 00404cb0 f i LIBCMTD:new.obj
 0001:00003ce0       ??0bad_alloc@std@@QAE@ABV01@@Z 00404ce0 f i LIBCMTD:new.obj
 0001:00003d10       @__security_check_cookie@4 00404d10 f   LIBCMTD:secchk.obj
 0001:00003d20       __RTC_CheckEsp             00404d20 f   LIBCMTD:_stack_.obj
 0001:00003d50       @_RTC_CheckStackVars@8     00404d50 f   LIBCMTD:_stack_.obj
 0001:00003dc0       @_RTC_AllocaHelper@12      00404dc0 f   LIBCMTD:_stack_.obj
 0001:00003e00       @_RTC_CheckStackVars2@12   00404e00 f   LIBCMTD:_stack_.obj
 0001:00003ee0       __RTC_InitBase             00404ee0 f   LIBCMTD:_init_.obj
 0001:00003f10       __RTC_Shutdown             00404f10 f   LIBCMTD:_init_.obj
 0001:00003f30       ?name@type_info@@QBEPBDPAU__type_info_node@@@Z 00404f30 f   LIBCMTD:typinfo.obj
 0001:00003f50       ??1type_info@@UAE@XZ       00404f50 f   LIBCMTD:typinfo.obj
 0001:00003f80       ??_Gtype_info@@UAEPAXI@Z   00404f80 f i LIBCMTD:typinfo.obj
 0001:00003f80       ??_Etype_info@@UAEPAXI@Z   00404f80 f i LIBCMTD:typinfo.obj
 0001:00003fb0       ?_name_internal_method@type_info@@QBEPBDPAU__type_info_node@@@Z 00404fb0 f   LIBCMTD:typinfo.obj
 0001:00003fd0       ?_type_info_dtor_internal_method@type_info@@QAEXXZ 00404fd0 f   LIBCMTD:typinfo.obj
 0001:00003ff0       ??8type_info@@QBE_NABV0@@Z 00404ff0 f   LIBCMTD:typinfo.obj
 0001:00004020       ??9type_info@@QBE_NABV0@@Z 00405020 f   LIBCMTD:typinfo.obj
 0001:00004050       ?before@type_info@@QBEHABV1@@Z 00405050 f   LIBCMTD:typinfo.obj
 0001:00004080       ?raw_name@type_info@@QBEPBDXZ 00405080 f   LIBCMTD:typinfo.obj
 0001:000040a0       ??0type_info@@AAE@ABV0@@Z  004050a0 f   LIBCMTD:typinfo.obj
 0001:000040c0       ??4type_info@@AAEAAV0@ABV0@@Z 004050c0 f   LIBCMTD:typinfo.obj
 0001:000040e0       __purecall                 004050e0 f   LIBCMTD:purevirt.obj
 0001:00004120       __set_purecall_handler     00405120 f   LIBCMTD:purevirt.obj
 0001:00004160       __get_purecall_handler     00405160 f   LIBCMTD:purevirt.obj
 0001:00004180       ?_JumpToContinuation@@YGXPAXPAUEHRegistrationNode@@@Z 00405180 f   LIBCMTD:_trnsctrl_.obj
 0001:000041c0       ?_CallMemberFunction0@@YGXPAX0@Z 004051c0 f   LIBCMTD:_trnsctrl_.obj
 0001:000041d0       ?_CallMemberFunction1@@YGXPAX00@Z 004051d0 f   LIBCMTD:_trnsctrl_.obj
 0001:000041e0       ?_CallMemberFunction2@@YGXPAX00H@Z 004051e0 f   LIBCMTD:_trnsctrl_.obj
 0001:000041f0       ?_UnwindNestedFrames@@YGXPAUEHRegistrationNode@@PAUEHExceptionRecord@@@Z 004051f0 f   LIBCMTD:_trnsctrl_.obj
 0001:00004250       ___CxxFrameHandler         00405250 f   LIBCMTD:_trnsctrl_.obj
 0001:00004290       ___CxxFrameHandler3        00405290 f   LIBCMTD:_trnsctrl_.obj
 0001:000042d0       ___CxxFrameHandler2        004052d0 f   LIBCMTD:_trnsctrl_.obj
 0001:00004310       ___CxxLongjmpUnwind@4      00405310 f   LIBCMTD:_trnsctrl_.obj
 0001:00004340       ?_CallCatchBlock2@@YAPAXPAUEHRegistrationNode@@PBU_s_FuncInfo@@PAXHK@Z 00405340 f   LIBCMTD:_trnsctrl_.obj
 0001:00004400       ?_CallSETranslator@@YAHPAUEHExceptionRecord@@PAUEHRegistrationNode@@PAX2PBU_s_FuncInfo@@H1@Z 00405400 f   LIBCMTD:_trnsctrl_.obj
 0001:000045a0       ?_GetRangeOfTrysToCheck@@YAPBU_s_TryBlockMapEntry@@PBU_s_FuncInfo@@HHPAI1@Z 004055a0 f   LIBCMTD:_trnsctrl_.obj
 0001:00004620       __CreateFrameInfo          00405620 f   LIBCMTD:_trnsctrl_.obj
 0001:00004650       __IsExceptionObjectToBeDestroyed 00405650 f   LIBCMTD:_trnsctrl_.obj
 0001:00004680       __FindAndUnlinkFrame       00405680 f   LIBCMTD:_trnsctrl_.obj
 0001:000046e0       __CrtSetReportHookW2       004056e0 f   LIBCMTD:dbgrptw.obj
 0001:00004a10       __CrtDbgReportW            00405a10 f   LIBCMTD:dbgrptw.obj
 0001:00004a50       __CrtDbgReportWV           00405a50 f i LIBCMTD:dbgrptw.obj
 0001:00004a80       ___crtMessageWindowW       00405a80 f   LIBCMTD:dbgrptw.obj
 0001:00004e80       __invoke_watson_if_error   00405e80 f i LIBCMTD:dbgrptw.obj
 0001:00004eb0       __invoke_watson_if_oneof   00405eb0 f i LIBCMTD:dbgrptw.obj
 0001:00004ef0       ?_CrtDbgReportW@@YAHHPBGH00ZZ 00405ef0 f   LIBCMTD:dbgrptw.obj
 0001:00004f30       __mbscmp_l                 00405f30 f   LIBCMTD:mbscmp.obj
 0001:00005180       ??0_LocaleUpdate@@QAE@PAUlocaleinfo_struct@@@Z 00406180 f i LIBCMTD:mbscmp.obj
 0001:00005260       ??1_LocaleUpdate@@QAE@XZ   00406260 f i LIBCMTD:mbscmp.obj
 0001:00005290       ?GetLocaleT@_LocaleUpdate@@QAEPAUlocaleinfo_struct@@XZ 00406290 f i LIBCMTD:mbscmp.obj
 0001:000052a0       __mbscmp                   004062a0 f   LIBCMTD:mbscmp.obj
 0001:000052c0       ??3@YAXPAX@Z               004062c0 f   LIBCMTD:dbgdel.obj
 0001:000053b0       _strlen                    004063b0 f   LIBCMTD:strlen.obj
 0001:00005440       __CxxThrowException@8      00406440 f   LIBCMTD:throw.obj
 0001:000054a0       ??0exception@std@@QAE@XZ   004064a0 f   LIBCMTD:stdexcpt.obj
 0001:000054d0       ??_Eexception@std@@UAEPAXI@Z 004064d0 f i LIBCMTD:stdexcpt.obj
 0001:000054d0       ??_Gexception@std@@UAEPAXI@Z 004064d0 f i LIBCMTD:stdexcpt.obj
 0001:00005500       ??0exception@std@@QAE@ABQBD@Z 00406500 f   LIBCMTD:stdexcpt.obj
 0001:00005540       ??0exception@std@@QAE@ABQBDH@Z 00406540 f   LIBCMTD:stdexcpt.obj
 0001:00005570       ??0exception@std@@QAE@ABV01@@Z 00406570 f   LIBCMTD:stdexcpt.obj
 0001:000055b0       ??4exception@std@@QAEAAV01@ABV01@@Z 004065b0 f   LIBCMTD:stdexcpt.obj
 0001:00005600       ??1exception@std@@UAE@XZ   00406600 f   LIBCMTD:stdexcpt.obj
 0001:00005620       ?what@exception@std@@UBEPBDXZ 00406620 f   LIBCMTD:stdexcpt.obj
 0001:00005650       ?_Copy_str@exception@std@@AAEXPBD@Z 00406650 f   LIBCMTD:stdexcpt.obj
 0001:000056c0       ?_Tidy@exception@std@@AAEXXZ 004066c0 f   LIBCMTD:stdexcpt.obj
 0001:00005700       ??0bad_cast@std@@QAE@PBD@Z 00406700 f   LIBCMTD:stdexcpt.obj
 0001:00005730       ??_Ebad_cast@std@@UAEPAXI@Z 00406730 f i LIBCMTD:stdexcpt.obj
 0001:00005730       ??_Gbad_cast@std@@UAEPAXI@Z 00406730 f i LIBCMTD:stdexcpt.obj
 0001:00005760       ??0bad_cast@std@@QAE@ABV01@@Z 00406760 f   LIBCMTD:stdexcpt.obj
 0001:00005790       ??1bad_cast@std@@UAE@XZ    00406790 f   LIBCMTD:stdexcpt.obj
 0001:000057b0       ??0bad_typeid@std@@QAE@PBD@Z 004067b0 f   LIBCMTD:stdexcpt.obj
 0001:000057e0       ??_Gbad_typeid@std@@UAEPAXI@Z 004067e0 f i LIBCMTD:stdexcpt.obj
 0001:000057e0       ??_Ebad_typeid@std@@UAEPAXI@Z 004067e0 f i LIBCMTD:stdexcpt.obj
 0001:00005810       ??0bad_typeid@std@@QAE@ABV01@@Z 00406810 f   LIBCMTD:stdexcpt.obj
 0001:00005840       ??1bad_typeid@std@@UAE@XZ  00406840 f   LIBCMTD:stdexcpt.obj
 0001:00005860       ??0__non_rtti_object@std@@QAE@PBD@Z 00406860 f   LIBCMTD:stdexcpt.obj
 0001:00005890       ??_G__non_rtti_object@std@@UAEPAXI@Z 00406890 f i LIBCMTD:stdexcpt.obj
 0001:00005890       ??_E__non_rtti_object@std@@UAEPAXI@Z 00406890 f i LIBCMTD:stdexcpt.obj
 0001:000058c0       ??0__non_rtti_object@std@@QAE@ABV01@@Z 004068c0 f   LIBCMTD:stdexcpt.obj
 0001:000058f0       ??1__non_rtti_object@std@@UAE@XZ 004068f0 f   LIBCMTD:stdexcpt.obj
 0001:00005910       _WinMainCRTStartup         00406910 f   LIBCMTD:wincrt0.obj
 0001:00005b90       __onexit                   00406b90 f   LIBCMTD:onexit.obj
 0001:00005d60       _atexit                    00406d60 f   LIBCMTD:onexit.obj
 0001:00005d80       ___onexitinit              00406d80 f   LIBCMTD:onexit.obj
 0001:00005de0       __initp_heap_handler       00406de0 f   LIBCMTD:handler.obj
 0001:00005df0       ?_set_new_handler@@YAP6AHI@ZP6AHI@Z@Z 00406df0 f   LIBCMTD:handler.obj
 0001:00005e30       ?_set_new_handler@@YAP6AHI@ZH@Z 00406e30 f   LIBCMTD:handler.obj
 0001:00005e70       ?_query_new_handler@@YAP6AHI@ZXZ 00406e70 f   LIBCMTD:handler.obj
 0001:00005e90       __callnewh                 00406e90 f   LIBCMTD:handler.obj
 0001:00005ed0       _malloc                    00406ed0 f   LIBCMTD:dbgmalloc.obj
 0001:00005f00       ___report_gsfailure        00406f00 f   LIBCMTD:gs_report.obj
 0001:00006010       ?_RTC_Failure@@YAXPAXH@Z   00407010 f   LIBCMTD:_error_.obj
 0001:000063c0       ?_RTC_StackFailure@@YAXPAXPBD@Z 004073c0 f   LIBCMTD:_error_.obj
 0001:000064c0       ?_RTC_AllocaFailure@@YAXPAXPAU_RTC_ALLOCA_NODE@@H@Z 004074c0 f   LIBCMTD:_error_.obj
 0001:00006670       __RTC_UninitUse            00407670 f   LIBCMTD:_error_.obj
 0001:00006760       __RTC_NumErrors            00407760 f   LIBCMTD:_userapi_.obj
 0001:00006770       __RTC_GetErrDesc           00407770 f   LIBCMTD:_userapi_.obj
 0001:00006790       __RTC_SetErrorType         00407790 f   LIBCMTD:_userapi_.obj
 0001:000067c0       __RTC_SetErrorFunc         004077c0 f   LIBCMTD:_userapi_.obj
 0001:000067e0       __RTC_SetErrorFuncW        004077e0 f   LIBCMTD:_userapi_.obj
 0001:00006800       ?_RTC_GetErrorFunc@@YAP6AHHPBDH00ZZPBX@Z 00407800 f   LIBCMTD:_userapi_.obj
 0001:00006810       ?_RTC_GetErrorFuncW@@YAP6AHHPB_WH00ZZPBX@Z 00407810 f   LIBCMTD:_userapi_.obj
 0001:00006820       __chkesp                   00407820 f   LIBCMTD:chkesp.obj
 0001:00006860       __CRT_RTC_INIT             00407860 f   LIBCMTD:chkesp.obj
 0001:00006870       __CRT_RTC_INITW            00407870 f   LIBCMTD:chkesp.obj
 0001:00006880       ?_Type_info_dtor@type_info@@CAXPAV1@@Z 00407880 f   LIBCMTD:typname.obj
 0001:00006990       ?_Name_base@type_info@@CAPBDPBV1@PAU__type_info_node@@@Z 00407990 f   LIBCMTD:typname.obj
 0001:00006b40       ?_Type_info_dtor_internal@type_info@@CAXPAV1@@Z 00407b40 f   LIBCMTD:typname.obj
 0001:00006c50       ___unDNameHelper           00407c50 f   LIBCMTD:typname.obj
 0001:00006c90       ?_Name_base_internal@type_info@@CAPBDPBV1@PAU__type_info_node@@@Z 00407c90 f   LIBCMTD:typname.obj
 0001:00006e50       ___clean_type_info_names_internal 00407e50 f   LIBCMTD:typname.obj
 0001:00006f10       _strcmp                    00407f10 f   LIBCMTD:strcmp.obj
 0001:00006fa0       _abort                     00407fa0 f   LIBCMTD:abort.obj
 0001:00007000       __set_abort_behavior       00408000 f   LIBCMTD:abort.obj
 0001:00007030       __FF_MSGBANNER             00408030 f   LIBCMTD:crt0msg.obj
 0001:00007080       __GET_RTERRMSG             00408080 f   LIBCMTD:crt0msg.obj
 0001:000070d0       __NMSG_WRITE               004080d0 f   LIBCMTD:crt0msg.obj
 0001:00007410       ___getlocaleinfo           00408410 f   LIBCMTD:inithelp.obj
 0001:000076f0       __initp_misc_purevirt      004086f0 f   LIBCMTD:inithelp.obj
 0001:00007700       ___InternalCxxFrameHandler 00408700 f   LIBCMTD:frame.obj
 0001:00007d00       ??0bad_exception@std@@QAE@PBD@Z 00408d00 f i LIBCMTD:frame.obj
 0001:00007d30       ??1bad_exception@std@@UAE@XZ 00408d30 f i LIBCMTD:frame.obj
 0001:00007d50       ??_Ebad_exception@std@@UAEPAXI@Z 00408d50 f i LIBCMTD:frame.obj
 0001:00007d50       ??_Gbad_exception@std@@UAEPAXI@Z 00408d50 f i LIBCMTD:frame.obj
 0001:00007d80       ??0bad_exception@std@@QAE@ABV01@@Z 00408d80 f i LIBCMTD:frame.obj
 0001:00007f40       ___TypeMatch               00408f40 f   LIBCMTD:frame.obj
 0001:00007ff0       ___FrameUnwindFilter       00408ff0 f   LIBCMTD:frame.obj
 0001:00008070       ___FrameUnwindToState      00409070 f   LIBCMTD:frame.obj
 0001:000085b0       ___BuildCatchObjectHelper  004095b0 f   LIBCMTD:frame.obj
 0001:00008820       ___BuildCatchObject        00409820 f   LIBCMTD:frame.obj
 0001:00008930       ___DestructExceptionObject 00409930 f   LIBCMTD:frame.obj
 0001:000089e0       ___AdjustPointer           004099e0 f   LIBCMTD:frame.obj
 0001:00008a30       ?__uncaught_exception@@YA_NXZ 00409a30 f   LIBCMTD:frame.obj
 0001:00008a50       ___CxxExceptionFilter      00409a50 f   LIBCMTD:frame.obj
 0001:00008c50       ___CxxRegisterExceptionObject 00409c50 f   LIBCMTD:frame.obj
 0001:00008d80       ___CxxDetectRethrow        00409d80 f   LIBCMTD:frame.obj
 0001:00008e10       ___CxxUnregisterExceptionObject 00409e10 f   LIBCMTD:frame.obj
 0001:00008f90       ___CxxQueryExceptionSize   00409f90 f   LIBCMTD:frame.obj
 0001:00008fa0       ___CxxCallUnwindDtor       00409fa0 f   LIBCMTD:frame.obj
 0001:00009020       ___CxxCallUnwindDelDtor    0040a020 f   LIBCMTD:frame.obj
 0001:000090a0       ___CxxCallUnwindStdDelDtor 0040a0a0 f   LIBCMTD:frame.obj
 0001:00009120       ___CxxCallUnwindVecDtor    0040a120 f   LIBCMTD:frame.obj
 0001:00009350       ?_is_exception_typeof@@YAHABVtype_info@@PAU_EXCEPTION_POINTERS@@@Z 0040a350 f   LIBCMTD:frame.obj
 0001:00009430       __CallSettingFrame@12      0040a430 f   LIBCMTD:lowhelpr.obj
 0001:00009457       __NLG_Return               0040a457     LIBCMTD:lowhelpr.obj
 0001:00009480       __encoded_null             0040a480 f   LIBCMTD:tidtable.obj
 0001:00009490       ___crtTlsAlloc@4           0040a490 f   LIBCMTD:tidtable.obj
 0001:000094a0       ___fls_getvalue@4          0040a4a0 f   LIBCMTD:tidtable.obj
 0001:000094c0       ___get_flsindex            0040a4c0 f   LIBCMTD:tidtable.obj
 0001:000094d0       ___set_flsgetvalue         0040a4d0 f   LIBCMTD:tidtable.obj
 0001:00009520       ___fls_setvalue@8          0040a520 f   LIBCMTD:tidtable.obj
 0001:00009540       __mtinit                   0040a540 f   LIBCMTD:tidtable.obj
 0001:00009740       __mtterm                   0040a740 f   LIBCMTD:tidtable.obj
 0001:000097a0       __initptd                  0040a7a0 f   LIBCMTD:tidtable.obj
 0001:000098d0       __getptd_noexit            0040a8d0 f   LIBCMTD:tidtable.obj
 0001:00009990       __getptd                   0040a990 f   LIBCMTD:tidtable.obj
 0001:000099c0       __freefls@4                0040a9c0 f   LIBCMTD:tidtable.obj
 0001:00009bd0       __freeptd                  0040abd0 f   LIBCMTD:tidtable.obj
 0001:00009c50       ___threadid                0040ac50 f   LIBCMTD:tidtable.obj
 0001:00009c60       ___threadhandle            0040ac60 f   LIBCMTD:tidtable.obj
 0001:00009c70       __initp_eh_hooks           0040ac70 f   LIBCMTD:hooks.obj
 0001:00009c90       ?terminate@@YAXXZ          0040ac90 f   LIBCMTD:hooks.obj
 0001:00009d10       ?unexpected@@YAXXZ         0040ad10 f   LIBCMTD:hooks.obj
 0001:00009d40       ?_inconsistency@@YAXXZ     0040ad40 f   LIBCMTD:hooks.obj
 0001:00009dd0       __mtinitlocks              0040add0 f   LIBCMTD:mlock.obj
 0001:00009e60       __mtdeletelocks            0040ae60 f   LIBCMTD:mlock.obj
 0001:00009f20       __mtinitlocknum            0040af20 f   LIBCMTD:mlock.obj
 0001:0000a070       __lock                     0040b070 f   LIBCMTD:mlock.obj
 0001:0000a0b0       __unlock                   0040b0b0 f   LIBCMTD:mlock.obj
 0001:0000a0d0       __lockerr_exit             0040b0d0 f   LIBCMTD:mlock.obj
 0001:0000a0f0       __malloc_dbg               0040b0f0 f   LIBCMTD:dbgheap.obj
 0001:0000a120       __nh_malloc                0040b120 f   LIBCMTD:dbgheap.obj
 0001:0000a140       __nh_malloc_dbg            0040b140 f   LIBCMTD:dbgheap.obj
 0001:0000a220       __heap_alloc               0040b220 f   LIBCMTD:dbgheap.obj
 0001:0000a600       __heap_alloc_dbg           0040b600 f   LIBCMTD:dbgheap.obj
 0001:0000a660       __calloc_dbg_impl          0040b660 f   LIBCMTD:dbgheap.obj
 0001:0000a6e0       __calloc_dbg               0040b6e0 f   LIBCMTD:dbgheap.obj
 0001:0000a740       __recalloc                 0040b740 f   LIBCMTD:dbgheap.obj
 0001:0000a770       __realloc_dbg              0040b770 f   LIBCMTD:dbgheap.obj
 0001:0000ae10       __recalloc_dbg             0040be10 f   LIBCMTD:dbgheap.obj
 0001:0000aec0       __expand                   0040bec0 f   LIBCMTD:dbgheap.obj
 0001:0000aef0       __expand_dbg               0040bef0 f   LIBCMTD:dbgheap.obj
 0001:0000b000       __free_nolock              0040c000 f   LIBCMTD:dbgheap.obj
 0001:0000b020       __free_dbg                 0040c020 f   LIBCMTD:dbgheap.obj
 0001:0000b0a0       __free_dbg_nolock          0040c0a0 f   LIBCMTD:dbgheap.obj
 0001:0000b580       __msize                    0040c580 f   LIBCMTD:dbgheap.obj
 0001:0000b5a0       __msize_dbg                0040c5a0 f   LIBCMTD:dbgheap.obj
 0001:0000b790       __CrtSetBreakAlloc         0040c790 f   LIBCMTD:dbgheap.obj
 0001:0000b7b0       __CrtSetDbgBlockType       0040c7b0 f   LIBCMTD:dbgheap.obj
 0001:0000b8a0       __CrtSetAllocHook          0040c8a0 f   LIBCMTD:dbgheap.obj
 0001:0000b8c0       __CrtGetAllocHook          0040c8c0 f   LIBCMTD:dbgheap.obj
 0001:0000b910       __CrtCheckMemory           0040c910 f   LIBCMTD:dbgheap.obj
 0001:0000bd70       __CrtSetDbgFlag            0040cd70 f   LIBCMTD:dbgheap.obj
 0001:0000bec0       __CrtDoForAllClientObjects 0040cec0 f   LIBCMTD:dbgheap.obj
 0001:0000bfe0       __CrtIsValidPointer        0040cfe0 f   LIBCMTD:dbgheap.obj
 0001:0000bff0       __CrtIsValidHeapPointer    0040cff0 f   LIBCMTD:dbgheap.obj
 0001:0000c040       __CrtIsMemoryBlock         0040d040 f   LIBCMTD:dbgheap.obj
 0001:0000c1b0       __CrtReportBlockType       0040d1b0 f   LIBCMTD:dbgheap.obj
 0001:0000c1e0       __CrtSetDumpClient         0040d1e0 f   LIBCMTD:dbgheap.obj
 0001:0000c200       __CrtGetDumpClient         0040d200 f   LIBCMTD:dbgheap.obj
 0001:0000c210       __CrtMemCheckpoint         0040d210 f   LIBCMTD:dbgheap.obj
 0001:0000c430       __CrtMemDifference         0040d430 f   LIBCMTD:dbgheap.obj
 0001:0000c650       __CrtMemDumpAllObjectsSince 0040d650 f   LIBCMTD:dbgheap.obj
 0001:0000cb40       __CrtDumpMemoryLeaks       0040db40 f   LIBCMTD:dbgheap.obj
 0001:0000cbc0       __CrtMemDumpStatistics     0040dbc0 f   LIBCMTD:dbgheap.obj
 0001:0000ccd0       __aligned_malloc           0040dcd0 f   LIBCMTD:dbgheap.obj
 0001:0000ccf0       __aligned_malloc_dbg       0040dcf0 f   LIBCMTD:dbgheap.obj
 0001:0000cd20       __aligned_realloc          0040dd20 f   LIBCMTD:dbgheap.obj
 0001:0000cd50       __aligned_recalloc         0040dd50 f   LIBCMTD:dbgheap.obj
 0001:0000cd80       __aligned_realloc_dbg      0040dd80 f   LIBCMTD:dbgheap.obj
 0001:0000cdb0       __aligned_recalloc_dbg     0040ddb0 f   LIBCMTD:dbgheap.obj
 0001:0000cde0       __aligned_offset_malloc    0040dde0 f   LIBCMTD:dbgheap.obj
 0001:0000ce00       __aligned_offset_malloc_dbg 0040de00 f   LIBCMTD:dbgheap.obj
 0001:0000cfc0       __aligned_offset_realloc   0040dfc0 f   LIBCMTD:dbgheap.obj
 0001:0000cff0       __aligned_offset_recalloc  0040dff0 f   LIBCMTD:dbgheap.obj
 0001:0000d020       __aligned_offset_realloc_dbg 0040e020 f   LIBCMTD:dbgheap.obj
 0001:0000d310       __aligned_offset_recalloc_dbg 0040e310 f   LIBCMTD:dbgheap.obj
 0001:0000d3d0       __aligned_free             0040e3d0 f   LIBCMTD:dbgheap.obj
 0001:0000d3f0       __aligned_free_dbg         0040e3f0 f   LIBCMTD:dbgheap.obj
 0001:0000d4a0       __CrtSetDebugFillThreshold 0040e4a0 f   LIBCMTD:dbgheap.obj
 0001:0000d4c0       __CrtSetCheckCount         0040e4c0 f   LIBCMTD:dbgheap.obj
 0001:0000d4e0       __CrtGetCheckCount         0040e4e0 f   LIBCMTD:dbgheap.obj
 0001:0000d4f0       __aligned_msize            0040e4f0 f   LIBCMTD:dbgheap.obj
 0001:0000d510       __aligned_msize_dbg        0040e510 f   LIBCMTD:dbgheap.obj
 0001:0000d620       __CrtDbgBreak              0040e620 f   LIBCMTD:dbgrptt.obj
 0001:0000d630       __CrtSetReportMode         0040e630 f   LIBCMTD:dbgrptt.obj
 0001:0000d770       __CrtSetReportFile         0040e770 f   LIBCMTD:dbgrptt.obj
 0001:0000d870       __CrtSetReportHook         0040e870 f   LIBCMTD:dbgrptt.obj
 0001:0000d890       __CrtGetReportHook         0040e890 f   LIBCMTD:dbgrptt.obj
 0001:0000d8a0       __VCrtDbgReportA           0040e8a0 f   LIBCMTD:dbgrptt.obj
 0001:0000e0d0       __VCrtDbgReportW           0040f0d0 f   LIBCMTD:dbgrptt.obj
 0001:0000ea00       __initp_misc_invarg        0040fa00 f   LIBCMTD:invarg.obj
 0001:0000ea10       __invalid_parameter        0040fa10 f   LIBCMTD:invarg.obj
 0001:0000ea70       __invoke_watson            0040fa70 f   LIBCMTD:invarg.obj
 0001:0000eaa0       __call_reportfault         0040faa0 f   LIBCMTD:invarg.obj
 0001:0000ebf0       __set_invalid_parameter_handler 0040fbf0 f   LIBCMTD:invarg.obj
 0001:0000ec30       __get_invalid_parameter_handler 0040fc30 f   LIBCMTD:invarg.obj
 0001:0000ec60       ?_invalid_parameter@@YAXPBG00II@Z 0040fc60 f   LIBCMTD:invarg.obj
 0001:0000ec90       ?_invoke_watson@@YAXPBG00II@Z 0040fc90 f   LIBCMTD:invarg.obj
 0001:0000ecb0       __dosmaperr                0040fcb0 f   LIBCMTD:dosmap.obj
 0001:0000ece0       __get_errno_from_oserr     0040fce0 f   LIBCMTD:dosmap.obj
 0001:0000ed60       __set_errno                0040fd60 f   LIBCMTD:dosmap.obj
 0001:0000ed90       __get_errno                0040fd90 f   LIBCMTD:dosmap.obj
 0001:0000ee10       __set_doserrno             0040fe10 f   LIBCMTD:dosmap.obj
 0001:0000ee40       __get_doserrno             0040fe40 f   LIBCMTD:dosmap.obj
 0001:0000eec0       __errno                    0040fec0 f   LIBCMTD:dosmap.obj
 0001:0000eef0       ___doserrno                0040fef0 f   LIBCMTD:dosmap.obj
 0001:0000ef20       __except_handler4          0040ff20 f   LIBCMTD:chandler4.obj
 0001:0000f140       __cinit                    00410140 f   LIBCMTD:crt0dat.obj
 0001:0000f1e0       _exit                      004101e0 f   LIBCMTD:crt0dat.obj
 0001:0000f200       __exit                     00410200 f   LIBCMTD:crt0dat.obj
 0001:0000f220       __cexit                    00410220 f   LIBCMTD:crt0dat.obj
 0001:0000f240       __c_exit                   00410240 f   LIBCMTD:crt0dat.obj
 0001:0000f260       __amsg_exit                00410260 f   LIBCMTD:crt0dat.obj
 0001:0000f290       ___freeCrtMemory           00410290 f   LIBCMTD:crt0dat.obj
 0001:0000f5d0       ___crtCorExitProcess       004105d0 f   LIBCMTD:crt0dat.obj
 0001:0000f610       ___crtExitProcess          00410610 f   LIBCMTD:crt0dat.obj
 0001:0000f630       __lockexit                 00410630 f   LIBCMTD:crt0dat.obj
 0001:0000f650       __unlockexit               00410650 f   LIBCMTD:crt0dat.obj
 0001:0000f670       __init_pointers            00410670 f   LIBCMTD:crt0dat.obj
 0001:0000f700       __initterm_e               00410700 f   LIBCMTD:crt0dat.obj
 0001:0000f740       __get_wpgmptr              00410740 f   LIBCMTD:crt0dat.obj
 0001:0000f830       __get_pgmptr               00410830 f   LIBCMTD:crt0dat.obj
 0001:0000f920       __initp_misc_winsig        00410920 f   LIBCMTD:winsig.obj
 0001:0000f950       _signal                    00410950 f   LIBCMTD:winsig.obj
 0001:0000fdf0       _raise                     00410df0 f   LIBCMTD:winsig.obj
 0001:00010160       ___get_sigabrt             00411160 f   LIBCMTD:winsig.obj
 0001:00010180       ___fpecode                 00411180 f   LIBCMTD:winsig.obj
 0001:00010190       ___pxcptinfoptrs           00411190 f   LIBCMTD:winsig.obj
 0001:000101a0       ___crtMessageBoxW          004111a0 f   LIBCMTD:crtmboxw.obj
 0001:000103c0       __swprintf                 004113c0 f   LIBCMTD:swprintf.obj
 0001:000105c0       ___swprintf_l              004115c0 f   LIBCMTD:swprintf.obj
 0001:000105f0       _swprintf_s                004115f0 f   LIBCMTD:swprintf.obj
 0001:00010620       __snwprintf_s              00411620 f   LIBCMTD:swprintf.obj
 0001:00010650       __swprintf_p               00411650 f   LIBCMTD:swprintf.obj
 0001:00010680       __swprintf_s_l             00411680 f   LIBCMTD:swprintf.obj
 0001:000106b0       __snwprintf_s_l            004116b0 f   LIBCMTD:swprintf.obj
 0001:000106e0       __swprintf_p_l             004116e0 f   LIBCMTD:swprintf.obj
 0001:00010710       __scwprintf                00411710 f   LIBCMTD:swprintf.obj
 0001:00010730       __scwprintf_p              00411730 f   LIBCMTD:swprintf.obj
 0001:00010750       __scwprintf_l              00411750 f   LIBCMTD:swprintf.obj
 0001:00010780       __scwprintf_p_l            00411780 f   LIBCMTD:swprintf.obj
 0001:000107b0       _memcpy_s                  004117b0 f   LIBCMTD:memcpy_s.obj
 0001:00010940       _wcslen                    00411940 f   LIBCMTD:wcslen.obj
 0001:00010970       _wcscpy_s                  00411970 f   LIBCMTD:wcscpy_s.obj
 0001:00010c50       __alloca_probe             00411c50     LIBCMTD:chkstk.obj
 0001:00010c50       __chkstk                   00411c50 f   LIBCMTD:chkstk.obj
 0001:00010c80       ___updatetmbcinfo          00411c80 f   LIBCMTD:mbctype.obj
 0001:00010d90       __setmbcp                  00411d90 f   LIBCMTD:mbctype.obj
 0001:00011140       __setmbcp_nolock           00412140 f   LIBCMTD:mbctype.obj
 0001:00011930       __getmbcp                  00412930 f   LIBCMTD:mbctype.obj
 0001:000119a0       ___initmbctable            004129a0 f   LIBCMTD:mbctype.obj
 0001:000119d0       ___addlocaleref            004129d0 f   LIBCMTD:localref.obj
 0001:00011af0       ___removelocaleref         00412af0 f   LIBCMTD:localref.obj
 0001:00011c20       ___freetlocinfo            00412c20 f   LIBCMTD:localref.obj
 0001:00011f00       __updatetlocinfoEx_nolock  00412f00 f   LIBCMTD:localref.obj
 0001:00011f80       ___updatetlocinfo          00412f80 f   LIBCMTD:localref.obj
 0001:00012050       _strcpy_s                  00413050 f   LIBCMTD:strcpy_s.obj
 0001:00012330       _free                      00413330 f   LIBCMTD:dbgfree.obj
 0001:00012350       ?__CxxUnhandledExceptionFilter@@YGJPAU_EXCEPTION_POINTERS@@@Z 00413350 f   LIBCMTD:unhandld.obj
 0001:000123c0       ___CxxSetUnhandledExceptionFilter 004133c0 f   LIBCMTD:unhandld.obj
 0001:000123e0       ___security_init_cookie    004133e0 f   LIBCMTD:gs_support.obj
 0001:000124c0       ___CppXcptFilter           004134c0 f   LIBCMTD:winxfltr.obj
 0001:000124f0       __XcptFilter               004134f0 f   LIBCMTD:winxfltr.obj
 0001:00012750       __wincmdln                 00413750 f   LIBCMTD:wincmdln.obj
 0001:00012820       __setenvp                  00413820 f   LIBCMTD:stdenvp.obj
 0001:000129c0       __setargv                  004139c0 f   LIBCMTD:stdargv.obj
 0001:00012ae0       __set_pgmptr               00413ae0 f i LIBCMTD:stdargv.obj
 0001:00012e50       ___crtGetEnvironmentStringsA 00413e50 f   LIBCMTD:a_env.obj
 0001:00012f50       __ioinit                   00413f50 f   LIBCMTD:ioinit.obj
 0001:00013360       __ioterm                   00414360 f   LIBCMTD:ioinit.obj
 0001:00013400       __RTC_Initialize           00414400 f   LIBCMTD:_initsect_.obj
 0001:00013430       __RTC_Terminate            00414430 f   LIBCMTD:_initsect_.obj
 0001:00013460       __heap_init                00414460 f   LIBCMTD:heapinit.obj
 0001:000134a0       __heap_term                004144a0 f   LIBCMTD:heapinit.obj
 0001:000134c0       __get_heap_handle          004144c0 f   LIBCMTD:heapinit.obj
 0001:00013500       __CrtDefaultAllocHook      00414500 f   LIBCMTD:dbghook.obj
 0001:00013510       __crt_debugger_hook        00414510 f   LIBCMTD:dbghook.obj
 0001:00013530       ?_RTC_GetSrcLine@@YAHPAEPA_WKPAH1K@Z 00414530 f   LIBCMTD:_pdblkup_.obj
 0001:000139e0       __CrtSetReportHook2        004149e0 f   LIBCMTD:dbgrpt.obj
 0001:00013d10       __CrtDbgReport             00414d10 f   LIBCMTD:dbgrpt.obj
 0001:00013d50       __CrtDbgReportV            00414d50 f i LIBCMTD:dbgrpt.obj
 0001:00013d80       ___crtMessageWindowA       00414d80 f   LIBCMTD:dbgrpt.obj
 0001:00014180       ___unDName                 00415180 f   LIBCMTD:undname.obj
 0001:00014260       ?Constructor@_HeapManager@@QAEXP6APAXI@ZP6AXPAX@Z@Z 00415260 f i LIBCMTD:undname.obj
 0001:000142a0       ?Destructor@_HeapManager@@QAEXXZ 004152a0 f i LIBCMTD:undname.obj
 0001:000142f0       ___unDNameEx               004152f0 f   LIBCMTD:undname.obj
 0001:000143d0       ??0UnDecorator@@QAE@PADPBDHP6APADJ@ZK@Z 004153d0 f i LIBCMTD:undname.obj
 0001:00014470       ??BUnDecorator@@QAEPADXZ   00415470 f i LIBCMTD:undname.obj
 0001:000146a0       ?dbGetString@DName@@QBEPADXZ 004156a0 f   LIBCMTD:undname.obj
 0001:000146d0       ?getDecoratedName@UnDecorator@@CA?AVDName@@XZ 004156d0 f   LIBCMTD:undname.obj
 0001:000149e0       ?getSymbolName@UnDecorator@@CA?AVDName@@XZ 004159e0 f i LIBCMTD:undname.obj
 0001:00014a60       ?getZName@UnDecorator@@CA?AVDName@@_N0@Z 00415a60 f   LIBCMTD:undname.obj
 0001:00014d00       ?getOperatorName@UnDecorator@@CA?AVDName@@_NPA_N@Z 00415d00 f i LIBCMTD:undname.obj
 0001:00015670       ?getStringEncoding@UnDecorator@@CA?AVDName@@PADH@Z 00416670 f   LIBCMTD:undname.obj
 0001:00015770       ?getScope@UnDecorator@@CA?AVDName@@XZ 00416770 f   LIBCMTD:undname.obj
 0001:00015b50       ?getSignedDimension@UnDecorator@@CA?AVDName@@XZ 00416b50 f   LIBCMTD:undname.obj
 0001:00015bd0       ?getDimension@UnDecorator@@CA?AVDName@@_N@Z 00416bd0 f   LIBCMTD:undname.obj
 0001:00015e80       ?getNumberOfDimensions@UnDecorator@@CAHXZ 00416e80 f   LIBCMTD:undname.obj
 0001:00015f80       ?getTemplateName@UnDecorator@@CA?AVDName@@_N@Z 00416f80 f   LIBCMTD:undname.obj
 0001:00016140       ?getTemplateArgumentList@UnDecorator@@CA?AVDName@@XZ 00417140 f   LIBCMTD:undname.obj
 0001:000163c0       ?getTemplateConstant@UnDecorator@@CA?AVDName@@XZ 004173c0 f   LIBCMTD:undname.obj
 0001:00016850       ?composeDeclaration@UnDecorator@@CA?AVDName@@ABV2@@Z 00417850 f i LIBCMTD:undname.obj
 0001:00017e50       ?getTypeEncoding@UnDecorator@@CAHXZ 00418e50 f i LIBCMTD:undname.obj
 0001:00018890       ?getBasedType@UnDecorator@@CA?AVDName@@XZ 00419890 f   LIBCMTD:undname.obj
 0001:00018950       ?getScopedName@UnDecorator@@CA?AVDName@@XZ 00419950 f   LIBCMTD:undname.obj
 0001:00018a70       ?getCallingConvention@UnDecorator@@CA?AVDName@@XZ 00419a70 f   LIBCMTD:undname.obj
 0001:00018bf0       ?getReturnType@UnDecorator@@CA?AVDName@@PAV2@@Z 00419bf0 f   LIBCMTD:undname.obj
 0001:00018c40       ?getDataType@UnDecorator@@CA?AVDName@@PAV2@@Z 00419c40 f   LIBCMTD:undname.obj
 0001:00018d60       ?getPrimaryDataType@UnDecorator@@CA?AVDName@@ABV2@@Z 00419d60 f   LIBCMTD:undname.obj
 0001:00019100       ?getArgumentTypes@UnDecorator@@CA?AVDName@@XZ 0041a100 f   LIBCMTD:undname.obj
 0001:00019260       ?getArgumentList@UnDecorator@@CA?AVDName@@XZ 0041a260 f   LIBCMTD:undname.obj
 0001:000193b0       ?getThrowTypes@UnDecorator@@CA?AVDName@@XZ 0041a3b0 f   LIBCMTD:undname.obj
 0001:00019460       ?getBasicDataType@UnDecorator@@CA?AVDName@@ABV2@@Z 0041a460 f   LIBCMTD:undname.obj
 0001:00019a20       ?getECSUDataType@UnDecorator@@CA?AVDName@@XZ 0041aa20 f   LIBCMTD:undname.obj
 0001:00019bf0       ?getECSUName@UnDecorator@@CA?AVDName@@XZ 0041abf0 f i LIBCMTD:undname.obj
 0001:00019c10       ?getEnumType@UnDecorator@@CA?AVDName@@XZ 0041ac10 f i LIBCMTD:undname.obj
 0001:00019d60       ?getFunctionIndirectType@UnDecorator@@CA?AVDName@@ABV2@@Z 0041ad60 f   LIBCMTD:undname.obj
 0001:0001a1a0       ?getPtrRefType@UnDecorator@@CA?AVDName@@ABV2@0PBD@Z 0041b1a0 f   LIBCMTD:undname.obj
 0001:0001a300       ?getExtendedDataIndirectType@UnDecorator@@CA?AVDName@@AAPBDAA_NH@Z 0041b300 f   LIBCMTD:undname.obj
 0001:0001a520       ?getDataIndirectType@UnDecorator@@CA?AVDName@@ABV2@PBD0H@Z 0041b520 f   LIBCMTD:undname.obj
 0001:0001ac20       ?getPtrRefDataType@UnDecorator@@CA?AVDName@@ABV2@H@Z 0041bc20 f i LIBCMTD:undname.obj
 0001:0001ad60       ?getArrayType@UnDecorator@@CA?AVDName@@ABV2@@Z 0041bd60 f i LIBCMTD:undname.obj
 0001:0001af90       ?getLexicalFrame@UnDecorator@@CA?AVDName@@XZ 0041bf90 f i LIBCMTD:undname.obj
 0001:0001afd0       ?getThisType@UnDecorator@@CA?AVDName@@XZ 0041bfd0 f i LIBCMTD:undname.obj
 0001:0001b010       ?getPointerType@UnDecorator@@CA?AVDName@@ABV2@0@Z 0041c010 f i LIBCMTD:undname.obj
 0001:0001b040       ?getPointerTypeArray@UnDecorator@@CA?AVDName@@ABV2@0@Z 0041c040 f i LIBCMTD:undname.obj
 0001:0001b070       ?getReferenceType@UnDecorator@@CA?AVDName@@ABV2@0PBD@Z 0041c070 f i LIBCMTD:undname.obj
 0001:0001b0a0       ?getDisplacement@UnDecorator@@CA?AVDName@@XZ 0041c0a0 f i LIBCMTD:undname.obj
 0001:0001b0c0       ?getCallIndex@UnDecorator@@CA?AVDName@@XZ 0041c0c0 f i LIBCMTD:undname.obj
 0001:0001b0e0       ?getGuardNumber@UnDecorator@@CA?AVDName@@XZ 0041c0e0 f i LIBCMTD:undname.obj
 0001:0001b100       ?getVbTableType@UnDecorator@@CA?AVDName@@ABV2@@Z 0041c100 f i LIBCMTD:undname.obj
 0001:0001b120       ?getVCallThunkType@UnDecorator@@CA?AVDName@@XZ 0041c120 f i LIBCMTD:undname.obj
 0001:0001b180       ?getVfTableType@UnDecorator@@CA?AVDName@@ABV2@@Z 0041c180 f i LIBCMTD:undname.obj
 0001:0001b340       ?getStorageConvention@UnDecorator@@CA?AVDName@@XZ 0041c340 f i LIBCMTD:undname.obj
 0001:0001b360       ?getDataIndirectType@UnDecorator@@CA?AVDName@@XZ 0041c360 f i LIBCMTD:undname.obj
 0001:0001b3a0       ?getVdispMapType@UnDecorator@@CA?AVDName@@ABV2@@Z 0041c3a0 f i LIBCMTD:undname.obj
 0001:0001b410       ?getExternalDataType@UnDecorator@@CA?AVDName@@ABV2@@Z 0041c410 f i LIBCMTD:undname.obj
 0001:0001b4a0       ?doMSKeywords@UnDecorator@@SAHXZ 0041c4a0 f i LIBCMTD:undname.obj
 0001:0001b4c0       ?doPtr64@UnDecorator@@SAHXZ 0041c4c0 f i LIBCMTD:undname.obj
 0001:0001b4e0       ?doFunctionReturns@UnDecorator@@SAHXZ 0041c4e0 f i LIBCMTD:undname.obj
 0001:0001b500       ?doAllocationModel@UnDecorator@@SAHXZ 0041c500 f i LIBCMTD:undname.obj
 0001:0001b520       ?doAllocationLanguage@UnDecorator@@SAHXZ 0041c520 f i LIBCMTD:undname.obj
 0001:0001b540       ?doThisTypes@UnDecorator@@SAHXZ 0041c540 f i LIBCMTD:undname.obj
 0001:0001b560       ?doAccessSpecifiers@UnDecorator@@SAHXZ 0041c560 f i LIBCMTD:undname.obj
 0001:0001b580       ?doThrowTypes@UnDecorator@@SAHXZ 0041c580 f i LIBCMTD:undname.obj
 0001:0001b5a0       ?doMemberTypes@UnDecorator@@SAHXZ 0041c5a0 f i LIBCMTD:undname.obj
 0001:0001b5c0       ?doNameOnly@UnDecorator@@SAHXZ 0041c5c0 f i LIBCMTD:undname.obj
 0001:0001b5e0       ?doTypeOnly@UnDecorator@@SAHXZ 0041c5e0 f i LIBCMTD:undname.obj
 0001:0001b600       ?haveTemplateParameters@UnDecorator@@SAHXZ 0041c600 f i LIBCMTD:undname.obj
 0001:0001b620       ?doEcsu@UnDecorator@@SAHXZ 0041c620 f i LIBCMTD:undname.obj
 0001:0001b640       ?doEllipsis@UnDecorator@@SAHXZ 0041c640 f i LIBCMTD:undname.obj
 0001:0001b660       ?UScore@UnDecorator@@SAPBDW4Tokens@@@Z 0041c660 f   LIBCMTD:undname.obj
 0001:0001b690       ?doUnderScore@UnDecorator@@SAHXZ 0041c690 f i LIBCMTD:undname.obj
 0001:0001b6b0       ??2@YAPAXIAAV_HeapManager@@H@Z 0041c6b0 f i LIBCMTD:undname.obj
 0001:0001b6d0       ?getMemory@_HeapManager@@QAEPAXIH@Z 0041c6d0 f   LIBCMTD:undname.obj
 0001:0001b7e0       ??0Block@_HeapManager@@QAE@XZ 0041c7e0 f i LIBCMTD:undname.obj
 0001:0001b800       ??H@YA?AVDName@@DABV0@@Z   0041c800 f i LIBCMTD:undname.obj
 0001:0001b830       ??H@YA?AVDName@@W4DNameStatus@@ABV0@@Z 0041c830 f i LIBCMTD:undname.obj
 0001:0001b860       ??H@YA?AVDName@@PBDABV0@@Z 0041c860 f i LIBCMTD:undname.obj
 0001:0001b890       ??0DName@@QAE@XZ           0041c890 f i LIBCMTD:undname.obj
 0001:0001b950       ??0DName@@QAE@D@Z          0041c950 f   LIBCMTD:undname.obj
 0001:0001ba30       ??0DName@@QAE@ABV0@@Z      0041ca30 f i LIBCMTD:undname.obj
 0001:0001ba60       ??0DName@@QAE@PAV0@@Z      0041ca60 f   LIBCMTD:undname.obj
 0001:0001bb90       ??0DName@@QAE@PBD@Z        0041cb90 f   LIBCMTD:undname.obj
 0001:0001bc80       ??0DName@@QAE@AAPBDD@Z     0041cc80 f   LIBCMTD:undname.obj
 0001:0001bf40       ?doNoIdentCharCheck@UnDecorator@@SAHXZ 0041cf40 f i LIBCMTD:undname.obj
 0001:0001bf60       ??0DName@@QAE@_K@Z         0041cf60 f   LIBCMTD:undname.obj
 0001:0001c0a0       ??0DName@@QAE@_J@Z         0041d0a0 f   LIBCMTD:undname.obj
 0001:0001c220       ??0DName@@QAE@W4DNameStatus@@@Z 0041d220 f   LIBCMTD:undname.obj
 0001:0001c340       ?isValid@DName@@QBEHXZ     0041d340 f i LIBCMTD:undname.obj
 0001:0001c370       ?isEmpty@DName@@QBEHXZ     0041d370 f i LIBCMTD:undname.obj
 0001:0001c390       ?status@DName@@QBE?AW4DNameStatus@@XZ 0041d390 f i LIBCMTD:undname.obj
 0001:0001c3b0       ?setPtrRef@DName@@QAEAAV1@XZ 0041d3b0 f i LIBCMTD:undname.obj
 0001:0001c3e0       ?isPtrRef@DName@@QBEHXZ    0041d3e0 f i LIBCMTD:undname.obj
 0001:0001c400       ?isUDC@DName@@QBEHXZ       0041d400 f i LIBCMTD:undname.obj
 0001:0001c440       ?setIsUDC@DName@@QAEXXZ    0041d440 f i LIBCMTD:undname.obj
 0001:0001c470       ?isUDTThunk@DName@@QBEHXZ  0041d470 f i LIBCMTD:undname.obj
 0001:0001c4b0       ?setIsArray@DName@@QAEXXZ  0041d4b0 f i LIBCMTD:undname.obj
 0001:0001c4d0       ?isArray@DName@@QBEHXZ     0041d4d0 f i LIBCMTD:undname.obj
 0001:0001c4f0       ?isNoTE@DName@@QBEHXZ      0041d4f0 f i LIBCMTD:undname.obj
 0001:0001c510       ?setIsNoTE@DName@@QAEXXZ   0041d510 f i LIBCMTD:undname.obj
 0001:0001c530       ?isPinPtr@DName@@QBEHXZ    0041d530 f i LIBCMTD:undname.obj
 0001:0001c550       ?setIsPinPtr@DName@@QAEXXZ 0041d550 f i LIBCMTD:undname.obj
 0001:0001c570       ?isComArray@DName@@QBEHXZ  0041d570 f i LIBCMTD:undname.obj
 0001:0001c590       ?setIsComArray@DName@@QAEXXZ 0041d590 f i LIBCMTD:undname.obj
 0001:0001c5b0       ?isVCallThunk@DName@@QBEHXZ 0041d5b0 f i LIBCMTD:undname.obj
 0001:0001c5d0       ?setIsVCallThunk@DName@@QAEXXZ 0041d5d0 f i LIBCMTD:undname.obj
 0001:0001c5f0       ?length@DName@@QBEHXZ      0041d5f0 f i LIBCMTD:undname.obj
 0001:0001c620       ?getLastChar@DName@@QBEDXZ 0041d620 f i LIBCMTD:undname.obj
 0001:0001c650       ?getString@DName@@QBEPADPADH@Z 0041d650 f i LIBCMTD:undname.obj
 0001:0001c6e0       ?getString@DName@@QBEPADPAD0@Z 0041d6e0 f i LIBCMTD:undname.obj
 0001:0001c720       ??HDName@@QBE?AV0@D@Z      0041d720 f   LIBCMTD:undname.obj
 0001:0001c760       ??HDName@@QBE?AV0@PBD@Z    0041d760 f   LIBCMTD:undname.obj
 0001:0001c7a0       ??HDName@@QBE?AV0@ABV0@@Z  0041d7a0 f   LIBCMTD:undname.obj
 0001:0001c7e0       ??HDName@@QBE?AV0@PAV0@@Z  0041d7e0 f   LIBCMTD:undname.obj
 0001:0001c820       ??HDName@@QBE?AV0@W4DNameStatus@@@Z 0041d820 f   LIBCMTD:undname.obj
 0001:0001c860       ?append@DName@@AAEXPAVDNameNode@@@Z 0041d860 f   LIBCMTD:undname.obj
 0001:0001c8f0       ??YDName@@QAEAAV0@D@Z      0041d8f0 f   LIBCMTD:undname.obj
 0001:0001c980       ??YDName@@QAEAAV0@PBD@Z    0041d980 f   LIBCMTD:undname.obj
 0001:0001ca20       ??YDName@@QAEAAV0@ABV0@@Z  0041da20 f   LIBCMTD:undname.obj
 0001:0001ca90       ??YDName@@QAEAAV0@PAV0@@Z  0041da90 f   LIBCMTD:undname.obj
 0001:0001cb50       ??YDName@@QAEAAV0@W4DNameStatus@@@Z 0041db50 f   LIBCMTD:undname.obj
 0001:0001cbc0       ??_5DName@@QAEAAV0@ABV0@@Z 0041dbc0 f   LIBCMTD:undname.obj
 0001:0001cc20       ??4DName@@QAEAAV0@D@Z      0041dc20 f i LIBCMTD:undname.obj
 0001:0001cd00       ??4DName@@QAEAAV0@PBD@Z    0041dd00 f   LIBCMTD:undname.obj
 0001:0001cde0       ??4DName@@QAEAAV0@ABV0@@Z  0041dde0 f   LIBCMTD:undname.obj
 0001:0001ce10       ??4DName@@QAEAAV0@PAV0@@Z  0041de10 f   LIBCMTD:undname.obj
 0001:0001cf50       ??4DName@@QAEAAV0@W4DNameStatus@@@Z 0041df50 f   LIBCMTD:undname.obj
 0001:0001d050       ?doPchar@DName@@AAEXPBDH@Z 0041e050 f   LIBCMTD:undname.obj
 0001:0001d190       ?isFull@Replicator@@QBEHXZ 0041e190 f i LIBCMTD:undname.obj
 0001:0001d1b0       ??0Replicator@@QAE@XZ      0041e1b0 f i LIBCMTD:undname.obj
 0001:0001d1d0       ??YReplicator@@QAEAAV0@ABVDName@@@Z 0041e1d0 f   LIBCMTD:undname.obj
 0001:0001d260       ??AReplicator@@QBE?AVDName@@H@Z 0041e260 f   LIBCMTD:undname.obj
 0001:0001d2d0       ??0DNameNode@@IAE@XZ       0041e2d0 f   LIBCMTD:undname.obj
 0001:0001d2f0       ??0charNode@@QAE@D@Z       0041e2f0 f   LIBCMTD:undname.obj
 0001:0001d320       ?length@charNode@@UBEHXZ   0041e320 f i LIBCMTD:undname.obj
 0001:0001d340       ?getLastChar@charNode@@UBEDXZ 0041e340 f i LIBCMTD:undname.obj
 0001:0001d360       ?getString@charNode@@UBEPADPAD0@Z 0041e360 f i LIBCMTD:undname.obj
 0001:0001d390       ??0pcharNode@@QAE@PBDH@Z   0041e390 f   LIBCMTD:undname.obj
 0001:0001d420       ?length@pcharNode@@UBEHXZ  0041e420 f i LIBCMTD:undname.obj
 0001:0001d440       ?getLastChar@pcharNode@@UBEDXZ 0041e440 f i LIBCMTD:undname.obj
 0001:0001d480       ?getString@pcharNode@@UBEPADPAD0@Z 0041e480 f i LIBCMTD:undname.obj
 0001:0001d4b0       ?getStringHelper@@YAPADPAD00H@Z 0041e4b0 f i LIBCMTD:undname.obj
 0001:0001d4f0       ??0pDNameNode@@QAE@PAVDName@@@Z 0041e4f0 f   LIBCMTD:undname.obj
 0001:0001d550       ?length@pDNameNode@@UBEHXZ 0041e550 f i LIBCMTD:undname.obj
 0001:0001d590       ?getLastChar@pDNameNode@@UBEDXZ 0041e590 f i LIBCMTD:undname.obj
 0001:0001d5c0       ?getString@pDNameNode@@UBEPADPAD0@Z 0041e5c0 f i LIBCMTD:undname.obj
 0001:0001d600       ??0DNameStatusNode@@AAE@W4DNameStatus@@@Z 0041e600 f   LIBCMTD:undname.obj
 0001:0001d650       ?length@DNameStatusNode@@UBEHXZ 0041e650 f i LIBCMTD:undname.obj
 0001:0001d670       ?getLastChar@DNameStatusNode@@UBEDXZ 0041e670 f i LIBCMTD:undname.obj
 0001:0001d690       ?getString@DNameStatusNode@@UBEPADPAD0@Z 0041e690 f i LIBCMTD:undname.obj
 0001:0001d6d0       ?make@DNameStatusNode@@SAPAV1@W4DNameStatus@@@Z 0041e6d0 f i LIBCMTD:undname.obj
 0001:0001d780       ??0pairNode@@QAE@PAVDNameNode@@0@Z 0041e780 f   LIBCMTD:undname.obj
 0001:0001d7c0       ?length@pairNode@@UBEHXZ   0041e7c0 f i LIBCMTD:undname.obj
 0001:0001d810       ?getLastChar@pairNode@@UBEDXZ 0041e810 f i LIBCMTD:undname.obj
 0001:0001d860       ?getString@pairNode@@UBEPADPAD0@Z 0041e860 f i LIBCMTD:undname.obj
 0001:0001d9a0       __malloc_base              0041e9a0 f   LIBCMTD:malloc.obj
 0001:0001da30       __heap_alloc_base          0041ea30 f i LIBCMTD:malloc.obj
 0001:0001da90       __free_base                0041ea90 f   LIBCMTD:free.obj
 0001:0001dae0       __local_unwind4            0041eae0 f   LIBCMTD:exsup4.obj
 0001:0001dbb6       __seh_longjmp_unwind4@4    0041ebb6 f   LIBCMTD:exsup4.obj
 0001:0001dbd2       @_EH4_CallFilterFunc@8     0041ebd2 f   LIBCMTD:exsup4.obj
 0001:0001dbe9       @_EH4_TransferToHandler@8  0041ebe9 f   LIBCMTD:exsup4.obj
 0001:0001dc02       @_EH4_GlobalUnwind2@8      0041ec02 f   LIBCMTD:exsup4.obj
 0001:0001dc1b       @_EH4_LocalUnwind@16       0041ec1b f   LIBCMTD:exsup4.obj
 0001:0001dc40       __set_error_mode           0041ec40 f   LIBCMTD:errmode.obj
 0001:0001dd00       ___set_app_type            0041ed00 f   LIBCMTD:errmode.obj
 0001:0001dd10       _wcscat_s                  0041ed10 f   LIBCMTD:wcscat_s.obj
 0001:0001e100       _wcsncpy_s                 0041f100 f   LIBCMTD:wcsncpy_s.obj
 0001:0001e510       _strncpy_s                 0041f510 f   LIBCMTD:strncpy_s.obj
 0001:0001e900       ___crtGetLocaleInfoA       0041f900 f   LIBCMTD:a_loc.obj
 0001:0001ea60       __MarkAllocaS              0041fa60 f i LIBCMTD:a_loc.obj
 0001:0001ea90       __freea                    0041fa90 f i LIBCMTD:a_loc.obj
 0001:0001eb00       ?_ValidateRead@@YAHPBXI@Z  0041fb00 f   LIBCMTD:validate.obj
 0001:0001eb30       ?_ValidateWrite@@YAHPAXI@Z 0041fb30 f   LIBCMTD:validate.obj
 0001:0001eb60       ?_ValidateExecute@@YAHP6GHXZ@Z 0041fb60 f   LIBCMTD:validate.obj
 0001:0001eb90       _memmove                   0041fb90 f   LIBCMTD:memmove.obj
 0001:0001ef00       __global_unwind2           0041ff00 f   LIBCMTD:exsup.obj
 0001:0001ef65       __local_unwind2            0041ff65 f   LIBCMTD:exsup.obj
 0001:0001efe9       __abnormal_termination     0041ffe9 f   LIBCMTD:exsup.obj
 0001:0001f00c       __NLG_Notify1              0042000c f   LIBCMTD:exsup.obj
 0001:0001f015       __NLG_Notify               00420015 f   LIBCMTD:exsup.obj
 0001:0001f02c       __NLG_Dispatch2            0042002c     LIBCMTD:exsup.obj
 0001:0001f02c       __NLG_Dispatch             0042002c     LIBCMTD:exsup.obj
 0001:0001f034       __NLG_Call                 00420034 f   LIBCMTD:exsup.obj
 0001:0001f036       __NLG_Return2              00420036     LIBCMTD:exsup.obj
 0001:0001f040       _memset                    00420040 f   LIBCMTD:memset.obj
 0001:0001f0c0       __expand_base              004200c0 f   LIBCMTD:expand.obj
 0001:0001f220       __realloc_base             00420220 f   LIBCMTD:realloc.obj
 0001:0001f320       __heapchk                  00420320 f   LIBCMTD:heapchk.obj
 0001:0001f350       __heapset                  00420350 f   LIBCMTD:heapchk.obj
 0001:0001f360       _sprintf                   00420360 f   LIBCMTD:sprintf.obj
 0001:0001f500       __sprintf_l                00420500 f   LIBCMTD:sprintf.obj
 0001:0001f530       _sprintf_s                 00420530 f   LIBCMTD:sprintf.obj
 0001:0001f560       __sprintf_s_l              00420560 f   LIBCMTD:sprintf.obj
 0001:0001f590       __snprintf_s               00420590 f   LIBCMTD:sprintf.obj
 0001:0001f5c0       __snprintf_s_l             004205c0 f   LIBCMTD:sprintf.obj
 0001:0001f5f0       __sprintf_p                004205f0 f   LIBCMTD:sprintf.obj
 0001:0001f620       __sprintf_p_l              00420620 f   LIBCMTD:sprintf.obj
 0001:0001f650       __scprintf                 00420650 f   LIBCMTD:sprintf.obj
 0001:0001f670       __scprintf_p               00420670 f   LIBCMTD:sprintf.obj
 0001:0001f690       __scprintf_l               00420690 f   LIBCMTD:sprintf.obj
 0001:0001f6c0       __scprintf_p_l             004206c0 f   LIBCMTD:sprintf.obj
 0001:0001f6f0       __chvalidator              004206f0 f   LIBCMTD:isctype.obj
 0001:0001f740       __chvalidator_l            00420740 f   LIBCMTD:isctype.obj
 0001:0001f7f0       __isctype_l                004207f0 f   LIBCMTD:isctype.obj
 0001:0001f910       __isctype                  00420910 f   LIBCMTD:isctype.obj
 0001:0001f950       _memcpy                    00420950 f   LIBCMTD:memcpy.obj
 0001:0001fcc0       __mbstowcs_l_helper        00420cc0 f   LIBCMTD:mbstowcs.obj
 0001:00020010       __mbstowcs_l               00421010 f   LIBCMTD:mbstowcs.obj
 0001:00020030       _mbstowcs                  00421030 f   LIBCMTD:mbstowcs.obj
 0001:00020080       __mbstowcs_s_l             00421080 f   LIBCMTD:mbstowcs.obj
 0001:00020400       _mbstowcs_s                00421400 f   LIBCMTD:mbstowcs.obj
 0001:00020430       _strcat_s                  00421430 f   LIBCMTD:strcat_s.obj
 0001:00020810       __vsnprintf_helper         00421810 f   LIBCMTD:vsnprnc.obj
 0001:00020a00       __vsnprintf_c              00421a00 f   LIBCMTD:vsnprnc.obj
 0001:00020a50       __vsnprintf_c_l            00421a50 f   LIBCMTD:vsnprnc.obj
 0001:00020aa0       __vsprintf_s_l             00421aa0 f   LIBCMTD:vsnprnc.obj
 0001:00020d10       _vsprintf_s                00421d10 f   LIBCMTD:vsnprnc.obj
 0001:00020d40       __vsnprintf_s_l            00421d40 f   LIBCMTD:vsnprnc.obj
 0001:000210e0       __vsnprintf_s              004220e0 f   LIBCMTD:vsnprnc.obj
 0001:00021110       __vsprintf_p               00422110 f   LIBCMTD:vsnprnc.obj
 0001:00021160       __vsprintf_p_l             00422160 f   LIBCMTD:vsnprnc.obj
 0001:000211b0       __itoa_s                   004221b0 f   LIBCMTD:xtoas.obj
 0001:00021580       __ltoa_s                   00422580 f   LIBCMTD:xtoas.obj
 0001:000215c0       __ultoa_s                  004225c0 f   LIBCMTD:xtoas.obj
 0001:000215e0       __i64toa_s                 004225e0 f   LIBCMTD:xtoas.obj
 0001:000219e0       __ui64toa_s                004229e0 f   LIBCMTD:xtoas.obj
 0001:00021a00       __wcstombs_l_helper        00422a00 f   LIBCMTD:wcstombs.obj
 0001:00021f40       __wcstombs_l               00422f40 f   LIBCMTD:wcstombs.obj
 0001:00021f60       _wcstombs                  00422f60 f   LIBCMTD:wcstombs.obj
 0001:00021f80       __wcstombs_s_l             00422f80 f   LIBCMTD:wcstombs.obj
 0001:000222b0       _wcstombs_s                004232b0 f   LIBCMTD:wcstombs.obj
 0001:000222e0       __vswprintf_helper         004232e0 f   LIBCMTD:vswprnc.obj
 0001:00022540       __vswprintf_c              00423540 f   LIBCMTD:vswprnc.obj
 0001:00022590       __vswprintf_c_l            00423590 f   LIBCMTD:vswprnc.obj
 0001:000225e0       __vswprintf_s_l            004235e0 f   LIBCMTD:vswprnc.obj
 0001:00022850       _vswprintf_s               00423850 f   LIBCMTD:vswprnc.obj
 0001:00022880       __vsnwprintf_s_l           00423880 f   LIBCMTD:vswprnc.obj
 0001:00022c30       __vsnwprintf_s             00423c30 f   LIBCMTD:vswprnc.obj
 0001:00022c60       __vswprintf_p              00423c60 f   LIBCMTD:vswprnc.obj
 0001:00022cb0       __vswprintf_p_l            00423cb0 f   LIBCMTD:vswprnc.obj
 0001:00022d00       __itow_s                   00423d00 f   LIBCMTD:xtows.obj
 0001:000230e0       __ltow_s                   004240e0 f   LIBCMTD:xtows.obj
 0001:00023120       __ultow_s                  00424120 f   LIBCMTD:xtows.obj
 0001:00023140       __i64tow_s                 00424140 f   LIBCMTD:xtows.obj
 0001:00023560       __ui64tow_s                00424560 f   LIBCMTD:xtows.obj
 0001:00023580       __ValidateImageBase        00424580 f   LIBCMTD:pesect.obj
 0001:000235e0       __FindPESection            004245e0 f   LIBCMTD:pesect.obj
 0001:00023660       __IsNonwritableInCurrentImage 00424660 f   LIBCMTD:pesect.obj
 0001:00023780       __initp_misc_cfltcvt_tab   00424780 f   LIBCMTD:cmiscdat.obj
 0001:000237c0       __initp_misc_rand_s        004247c0 f   LIBCMTD:rand_s.obj
 0001:000237d0       _rand_s                    004247d0 f   LIBCMTD:rand_s.obj
 0001:000239f0       __flsbuf                   004249f0 f   LIBCMTD:_flsbuf.obj
 0001:00023cb0       __woutput_l                00424cb0 f   LIBCMTD:woutput.obj
 0001:00024e80       _get_int_arg               00425e80 f i LIBCMTD:woutput.obj
 0001:00024ea0       _get_int64_arg             00425ea0 f i LIBCMTD:woutput.obj
 0001:00024ec0       __vswprintf_l              00425ec0 f   LIBCMTD:vswprint.obj
 0001:000250b0       __vswprintf                004260b0 f   LIBCMTD:vswprint.obj
 0001:000250d0       ___vswprintf_l             004260d0 f   LIBCMTD:vswprint.obj
 0001:000250f0       __vscwprintf_helper        004260f0 f   LIBCMTD:vswprint.obj
 0001:000251d0       __vscwprintf               004261d0 f   LIBCMTD:vswprint.obj
 0001:000251f0       __vscwprintf_l             004261f0 f   LIBCMTD:vswprint.obj
 0001:00025210       __vscwprintf_p             00426210 f   LIBCMTD:vswprint.obj
 0001:00025230       __vscwprintf_p_l           00426230 f   LIBCMTD:vswprint.obj
 0001:00025250       ___crtLCMapStringA         00426250 f   LIBCMTD:a_map.obj
 0001:00025590       ___crtGetStringTypeA       00426590 f   LIBCMTD:a_str.obj
 0001:00025700       ___init_time               00426700 f   LIBCMTD:inittime.obj
 0001:00026430       ___free_lc_time            00427430 f   LIBCMTD:inittime.obj
 0001:00026aa0       ___init_numeric            00427aa0 f   LIBCMTD:initnum.obj
 0001:00026e50       ___free_lconv_num          00427e50 f   LIBCMTD:initnum.obj
 0001:00026f00       ___init_monetary           00427f00 f   LIBCMTD:initmon.obj
 0001:000274f0       ___free_lconv_mon          004284f0 f   LIBCMTD:initmon.obj
 0001:000276a0       _localeconv                004286a0 f   LIBCMTD:lconv.obj
 0001:000276f0       ___pwctype_func            004286f0 f   LIBCMTD:ctype.obj
 0001:00027700       ___pctype_func             00428700 f   LIBCMTD:ctype.obj
 0001:00027750       __ismbbkalnum_l            00428750 f   LIBCMTD:ismbbyte.obj
 0001:00027770       __ismbbkalnum              00428770 f   LIBCMTD:ismbbyte.obj
 0001:00027790       __ismbbkprint_l            00428790 f   LIBCMTD:ismbbyte.obj
 0001:000277b0       __ismbbkprint              004287b0 f   LIBCMTD:ismbbyte.obj
 0001:000277d0       __ismbbkpunct_l            004287d0 f   LIBCMTD:ismbbyte.obj
 0001:000277f0       __ismbbkpunct              004287f0 f   LIBCMTD:ismbbyte.obj
 0001:00027810       __ismbbalnum_l             00428810 f   LIBCMTD:ismbbyte.obj
 0001:00027830       __ismbbalnum               00428830 f   LIBCMTD:ismbbyte.obj
 0001:00027850       __ismbbalpha_l             00428850 f   LIBCMTD:ismbbyte.obj
 0001:00027870       __ismbbalpha               00428870 f   LIBCMTD:ismbbyte.obj
 0001:00027890       __ismbbgraph_l             00428890 f   LIBCMTD:ismbbyte.obj
 0001:000278b0       __ismbbgraph               004288b0 f   LIBCMTD:ismbbyte.obj
 0001:000278d0       __ismbbprint_l             004288d0 f   LIBCMTD:ismbbyte.obj
 0001:000278f0       __ismbbprint               004288f0 f   LIBCMTD:ismbbyte.obj
 0001:00027910       __ismbbpunct_l             00428910 f   LIBCMTD:ismbbyte.obj
 0001:00027930       __ismbbpunct               00428930 f   LIBCMTD:ismbbyte.obj
 0001:00027950       __ismbblead_l              00428950 f   LIBCMTD:ismbbyte.obj
 0001:00027970       __ismbblead                00428970 f   LIBCMTD:ismbbyte.obj
 0001:00027990       __ismbbtrail_l             00428990 f   LIBCMTD:ismbbyte.obj
 0001:000279b0       __ismbbtrail               004289b0 f   LIBCMTD:ismbbyte.obj
 0001:000279d0       __ismbbkana_l              004289d0 f   LIBCMTD:ismbbyte.obj
 0001:00027a40       __ismbbkana                00428a40 f   LIBCMTD:ismbbyte.obj
 0001:00027b30       ___crtMessageBoxA          00428b30 f   LIBCMTD:crtmbox.obj
 0001:00027d50       _atol                      00428d50 f   LIBCMTD:atox.obj
 0001:00027d70       __atol_l                   00428d70 f   LIBCMTD:atox.obj
 0001:00027d90       _atoi                      00428d90 f   LIBCMTD:atox.obj
 0001:00027db0       __atoi_l                   00428db0 f   LIBCMTD:atox.obj
 0001:00027dd0       __atoi64                   00428dd0 f   LIBCMTD:atox.obj
 0001:00027df0       __atoi64_l                 00428df0 f   LIBCMTD:atox.obj
 0001:00027e10       __allshl                   00428e10 f   LIBCMTD:llshl.obj
 0001:00027e30       __aulldiv                  00428e30 f   LIBCMTD:ulldiv.obj
 0001:00027ea0       __aullrem                  00428ea0 f   LIBCMTD:ullrem.obj
 0001:00027f20       __VEC_memcpy               00428f20 f   LIBCMTD:p4_memcpy.obj
 0001:00028030       ___sse2_available_init     00429030 f   LIBCMTD:cpu_disp.obj
 0001:00028050       __VEC_memzero              00429050 f   LIBCMTD:p4_memset.obj
 0001:00028110       __output_l                 00429110 f   LIBCMTD:output.obj
 0001:00029550       _get_short_arg             0042a550 f i LIBCMTD:output.obj
 0001:00029570       __vsprintf_l               0042a570 f   LIBCMTD:vsprintf.obj
 0001:00029710       _vsprintf                  0042a710 f   LIBCMTD:vsprintf.obj
 0001:00029730       __vscprintf_helper         0042a730 f   LIBCMTD:vsprintf.obj
 0001:00029810       __vscprintf                0042a810 f   LIBCMTD:vsprintf.obj
 0001:00029830       __vscprintf_l              0042a830 f   LIBCMTD:vsprintf.obj
 0001:00029850       __vscprintf_p              0042a850 f   LIBCMTD:vsprintf.obj
 0001:00029870       __vscprintf_p_l            0042a870 f   LIBCMTD:vsprintf.obj
 0001:00029890       __isleadbyte_l             0042a890 f i LIBCMTD:_wctype.obj
 0001:000298e0       _isleadbyte                0042a8e0 f i LIBCMTD:_wctype.obj
 0001:00029900       __iswalpha_l               0042a900 f i LIBCMTD:_wctype.obj
 0001:00029920       _iswalpha                  0042a920 f i LIBCMTD:_wctype.obj
 0001:00029940       __iswupper_l               0042a940 f i LIBCMTD:_wctype.obj
 0001:00029960       _iswupper                  0042a960 f i LIBCMTD:_wctype.obj
 0001:00029980       __iswlower_l               0042a980 f i LIBCMTD:_wctype.obj
 0001:000299a0       _iswlower                  0042a9a0 f i LIBCMTD:_wctype.obj
 0001:000299c0       __iswdigit_l               0042a9c0 f i LIBCMTD:_wctype.obj
 0001:000299e0       _iswdigit                  0042a9e0 f i LIBCMTD:_wctype.obj
 0001:00029a00       __iswxdigit_l              0042aa00 f i LIBCMTD:_wctype.obj
 0001:00029a20       _iswxdigit                 0042aa20 f i LIBCMTD:_wctype.obj
 0001:00029a40       __iswspace_l               0042aa40 f i LIBCMTD:_wctype.obj
 0001:00029a60       _iswspace                  0042aa60 f i LIBCMTD:_wctype.obj
 0001:00029a80       __iswpunct_l               0042aa80 f i LIBCMTD:_wctype.obj
 0001:00029aa0       _iswpunct                  0042aaa0 f i LIBCMTD:_wctype.obj
 0001:00029ac0       __iswalnum_l               0042aac0 f i LIBCMTD:_wctype.obj
 0001:00029ae0       _iswalnum                  0042aae0 f i LIBCMTD:_wctype.obj
 0001:00029b00       __iswprint_l               0042ab00 f i LIBCMTD:_wctype.obj
 0001:00029b20       _iswprint                  0042ab20 f i LIBCMTD:_wctype.obj
 0001:00029b40       __iswgraph_l               0042ab40 f i LIBCMTD:_wctype.obj
 0001:00029b60       _iswgraph                  0042ab60 f i LIBCMTD:_wctype.obj
 0001:00029b80       __iswcntrl_l               0042ab80 f i LIBCMTD:_wctype.obj
 0001:00029ba0       _iswcntrl                  0042aba0 f i LIBCMTD:_wctype.obj
 0001:00029bc0       _iswascii                  0042abc0 f i LIBCMTD:_wctype.obj
 0001:00029be0       __iswcsym_l                0042abe0 f i LIBCMTD:_wctype.obj
 0001:00029c20       ___iswcsym                 0042ac20 f i LIBCMTD:_wctype.obj
 0001:00029c60       __iswcsymf_l               0042ac60 f i LIBCMTD:_wctype.obj
 0001:00029ca0       ___iswcsymf                0042aca0 f i LIBCMTD:_wctype.obj
 0001:00029ce0       ____setlc_active_func      0042ace0 f   LIBCMTD:setlocal.obj
 0001:00029cf0       ____unguarded_readlc_active_add_func 0042acf0 f   LIBCMTD:setlocal.obj
 0001:00029d00       __configthreadlocale       0042ad00 f   LIBCMTD:setlocal.obj
 0001:00029e10       __locterm                  0042ae10 f   LIBCMTD:setlocal.obj
 0001:00029eb0       __free_locale              0042aeb0 f   LIBCMTD:setlocal.obj
 0001:00029ff0       ___free_locale             0042aff0 f   LIBCMTD:setlocal.obj
 0001:0002a010       __create_locale            0042b010 f   LIBCMTD:setlocal.obj
 0001:0002a240       ___create_locale           0042b240 f   LIBCMTD:setlocal.obj
 0001:0002a260       __get_current_locale       0042b260 f   LIBCMTD:setlocal.obj
 0001:0002a380       ___get_current_locale      0042b380 f   LIBCMTD:setlocal.obj
 0001:0002a390       _setlocale                 0042b390 f   LIBCMTD:setlocal.obj
 0001:0002b240       __expandlocale             0042c240 f   LIBCMTD:setlocal.obj
 0001:0002b4f0       ___init_dummy              0042c4f0 f   LIBCMTD:setlocal.obj
 0001:0002b500       __strcats                  0042c500 f   LIBCMTD:setlocal.obj
 0001:0002b580       ___lc_strtolc              0042c580 f   LIBCMTD:setlocal.obj
 0001:0002b780       ___lc_lctostr              0042c780 f   LIBCMTD:setlocal.obj
 0001:0002b820       __output_s_l               0042c820 f   LIBCMTD:outputs.obj
 0001:0002cdb0       __validate_param_reuseA    0042ddb0 f   LIBCMTD:outputp.obj
 0001:0002d020       __output_p_l               0042e020 f   LIBCMTD:outputp.obj
 0001:00030bf0       _get_crtdouble_arg         00431bf0 f i LIBCMTD:outputp.obj
 0001:00030c10       __woutput_s_l              00431c10 f   LIBCMTD:woutputs.obj
 0001:00031f30       __validate_param_reuseW    00432f30 f   LIBCMTD:woutputp.obj
 0001:000321a0       __woutput_p_l              004331a0 f   LIBCMTD:woutputp.obj
 0001:000358f0       __fptrap                   004368f0 f   LIBCMTD:crt0fp.obj
 0001:00035910       __lseeki64                 00436910 f   LIBCMTD:lseeki64.obj
 0001:00035b60       __lseeki64_nolock          00436b60 f   LIBCMTD:lseeki64.obj
 0001:00035c50       __write                    00436c50 f   LIBCMTD:write.obj
 0001:00035e80       __write_nolock             00436e80 f   LIBCMTD:write.obj
 0001:000369c0       __getbuf                   004379c0 f   LIBCMTD:_getbuf.obj
 0001:00036a90       __isatty                   00437a90 f   LIBCMTD:isatty.obj
 0001:00036b50       ___iob_func                00437b50 f   LIBCMTD:_file.obj
 0001:00036b60       ___initstdio               00437b60 f   LIBCMTD:_file.obj
 0001:00036cb0       ___endstdio                00437cb0 f   LIBCMTD:_file.obj
 0001:00036ce0       __lock_file                00437ce0 f   LIBCMTD:_file.obj
 0001:00036d40       __lock_file2               00437d40 f   LIBCMTD:_file.obj
 0001:00036d80       __unlock_file              00437d80 f   LIBCMTD:_file.obj
 0001:00036de0       __unlock_file2             00437de0 f   LIBCMTD:_file.obj
 0001:00036e20       __fileno                   00437e20 f   LIBCMTD:fileno.obj
 0001:00036ea0       _printf                    00437ea0 f   LIBCMTD:printf.obj
 0001:00036fe0       __printf_l                 00437fe0 f   LIBCMTD:printf.obj
 0001:00037010       __printf_s_l               00438010 f   LIBCMTD:printf.obj
 0001:00037040       _printf_s                  00438040 f   LIBCMTD:printf.obj
 0001:00037070       __printf_p_l               00438070 f   LIBCMTD:printf.obj
 0001:000370a0       __printf_p                 004380a0 f   LIBCMTD:printf.obj
 0001:000370d0       __set_printf_count_output  004380d0 f   LIBCMTD:printf.obj
 0001:00037120       __get_printf_count_output  00438120 f   LIBCMTD:printf.obj
 0001:00037140       __mbtowc_l                 00438140 f   LIBCMTD:mbtowc.obj
 0001:00037360       _mbtowc                    00438360 f   LIBCMTD:mbtowc.obj
 0001:00037380       _fputwc                    00438380 f   LIBCMTD:fputwc.obj
 0001:00037480       __fputwc_nolock            00438480 f   LIBCMTD:fputwc.obj
 0001:00037770       _putwc                     00438770 f   LIBCMTD:fputwc.obj
 0001:00037790       _strtol                    00438790 f   LIBCMTD:strtol.obj
 0001:00037cc0       __strtol_l                 00438cc0 f   LIBCMTD:strtol.obj
 0001:00037cf0       _strtoul                   00438cf0 f   LIBCMTD:strtol.obj
 0001:00037d40       __strtoul_l                00438d40 f   LIBCMTD:strtol.obj
 0001:00037d70       __strtoi64                 00438d70 f   LIBCMTD:strtoq.obj
 0001:000382e0       __strtoi64_l               004392e0 f   LIBCMTD:strtoq.obj
 0001:00038310       __strtoui64                00439310 f   LIBCMTD:strtoq.obj
 0001:00038360       __strtoui64_l              00439360 f   LIBCMTD:strtoq.obj
 0001:00038390       __wctomb_s_l               00439390 f   LIBCMTD:wctomb.obj
 0001:00038690       _wctomb_s                  00439690 f   LIBCMTD:wctomb.obj
 0001:000386c0       __wctomb_l                 004396c0 f   LIBCMTD:wctomb.obj
 0001:00038740       _wctomb                    00439740 f   LIBCMTD:wctomb.obj
 0001:00038790       __iswctype_l               00439790 f   LIBCMTD:iswctype.obj
 0001:000387b0       _iswctype                  004397b0 f   LIBCMTD:iswctype.obj
 0001:00038810       _is_wctype                 00439810 f   LIBCMTD:iswctype.obj
 0001:00038830       ___init_ctype              00439830 f   LIBCMTD:initctyp.obj
 0001:00038de0       ____mb_cur_max_func        00439de0 f   LIBCMTD:initctyp.obj
 0001:00038e30       ____mb_cur_max_l_func      00439e30 f   LIBCMTD:initctyp.obj
 0001:00038e60       ____lc_codepage_func       00439e60 f   LIBCMTD:initctyp.obj
 0001:00038eb0       ____lc_collate_cp_func     00439eb0 f   LIBCMTD:initctyp.obj
 0001:00038f00       ____lc_handle_func         00439f00 f   LIBCMTD:initctyp.obj
 0001:00038f50       ___init_collate            00439f50 f   LIBCMTD:initcoll.obj
 0001:00038f60       _strcspn                   00439f60 f   LIBCMTD:strcspn.obj
 0001:00038fb0       _strncmp                   00439fb0 f   LIBCMTD:strncmp.obj
 0001:00039130       _strpbrk                   0043a130 f   LIBCMTD:strpbrk.obj
 0001:00039170       _memcmp                    0043a170 f   LIBCMTD:memcmp.obj
 0001:00039be0       ___get_qualified_locale    0043abe0 f   LIBCMTD:getqloc.obj
 0001:0003aa40       _wcstol                    0043ba40 f   LIBCMTD:wcstol.obj
 0001:0003ae10       __wcstol_l                 0043be10 f   LIBCMTD:wcstol.obj
 0001:0003ae30       _wcstoul                   0043be30 f   LIBCMTD:wcstol.obj
 0001:0003ae50       __wcstoul_l                0043be50 f   LIBCMTD:wcstol.obj
 0001:0003ae70       __alloc_osfhnd             0043be70 f   LIBCMTD:osfinfo.obj
 0001:0003b120       __set_osfhnd               0043c120 f   LIBCMTD:osfinfo.obj
 0001:0003b1f0       __free_osfhnd              0043c1f0 f   LIBCMTD:osfinfo.obj
 0001:0003b2e0       __get_osfhandle            0043c2e0 f   LIBCMTD:osfinfo.obj
 0001:0003b450       __open_osfhandle           0043c450 f   LIBCMTD:osfinfo.obj
 0001:0003b680       ___lock_fhandle            0043c680 f   LIBCMTD:osfinfo.obj
 0001:0003b780       __unlock_fhandle           0043c780 f   LIBCMTD:osfinfo.obj
 0001:0003b7b0       __putwch                   0043c7b0 f   LIBCMTD:putwch.obj
 0001:0003b840       __putwch_nolock            0043c840 f   LIBCMTD:putwch.obj
 0001:0003b890       __fcloseall                0043c890 f   LIBCMTD:closeall.obj
 0001:0003b9c0       _fflush                    0043c9c0 f   LIBCMTD:fflush.obj
 0001:0003ba60       __fflush_nolock            0043ca60 f   LIBCMTD:fflush.obj
 0001:0003bac0       __flush                    0043cac0 f   LIBCMTD:fflush.obj
 0001:0003bb80       __flushall                 0043cb80 f   LIBCMTD:fflush.obj
 0001:0003bd50       __stbuf                    0043cd50 f   LIBCMTD:_sftbuf.obj
 0001:0003beb0       __ftbuf                    0043ceb0 f   LIBCMTD:_sftbuf.obj
 0001:0003bf40       _vprintf_helper            0043cf40 f   LIBCMTD:vprintf.obj
 0001:0003c060       __vprintf_l                0043d060 f   LIBCMTD:vprintf.obj
 0001:0003c080       __vprintf_s_l              0043d080 f   LIBCMTD:vprintf.obj
 0001:0003c0a0       __vprintf_p_l              0043d0a0 f   LIBCMTD:vprintf.obj
 0001:0003c0c0       _vprintf                   0043d0c0 f   LIBCMTD:vprintf.obj
 0001:0003c0e0       _vprintf_s                 0043d0e0 f   LIBCMTD:vprintf.obj
 0001:0003c100       __vprintf_p                0043d100 f   LIBCMTD:vprintf.obj
 0001:0003c120       __flswbuf                  0043d120 f   LIBCMTD:_flswbuf.obj
 0001:0003c400       __allmul                   0043d400 f   LIBCMTD:llmul.obj
 0001:0003c440       __stricmp_l                0043d440 f   LIBCMTD:stricmp.obj
 0001:0003c5f0       ___ascii_stricmp           0043d5f0 f   LIBCMTD:stricmp.obj
 0001:0003c670       __stricmp                  0043d670 f   LIBCMTD:stricmp.obj
 0001:0003c780       __strnicmp_l               0043d780 f   LIBCMTD:strnicmp.obj
 0001:0003c9c0       __strnicmp                 0043d9c0 f   LIBCMTD:strnicmp.obj
 0001:0003cb50       __wchartodigit             0043db50 f   LIBCMTD:wchtodig.obj
 0001:0003ce80       ___initconout              0043de80 f   LIBCMTD:initcon.obj
 0001:0003ceb0       ___termconout              0043deb0 f   LIBCMTD:initcon.obj
 0001:0003cee0       _fclose                    0043dee0 f   LIBCMTD:fclose.obj
 0001:0003cff0       __fclose_nolock            0043dff0 f   LIBCMTD:fclose.obj
 0001:0003d0f0       __commit                   0043e0f0 f   LIBCMTD:commit.obj
 0001:0003d310       __tolower                  0043e310 f   LIBCMTD:tolower.obj
 0001:0003d320       __tolower_l                0043e320 f   LIBCMTD:tolower.obj
 0001:0003d500       _tolower                   0043e500 f   LIBCMTD:tolower.obj
 0001:0003d550       ___ascii_strnicmp          0043e550 f   LIBCMTD:_strnicm.obj
 0001:0003d5c0       __close                    0043e5c0 f   LIBCMTD:close.obj
 0001:0003d7d0       __close_nolock             0043e7d0 f   LIBCMTD:close.obj
 0001:0003d8a0       __freebuf                  0043e8a0 f   LIBCMTD:_freebuf.obj
 0001:0003d930       ??0?$basic_filebuf@DU?$char_traits@D@std@@@std@@QAE@PAU_iobuf@@@Z 0043e930 f i libcpmtd:cout.obj
 0001:0003d9a0       ??1?$basic_streambuf@DU?$char_traits@D@std@@@std@@UAE@XZ 0043e9a0 f i libcpmtd:cout.obj
 0001:0003da10       ?_Lock@?$basic_streambuf@DU?$char_traits@D@std@@@std@@UAEXXZ 0043ea10 f i libcpmtd:cout.obj
 0001:0003da30       ?_Unlock@?$basic_streambuf@DU?$char_traits@D@std@@@std@@UAEXXZ 0043ea30 f i libcpmtd:cout.obj
 0001:0003da50       ?overflow@?$basic_streambuf@DU?$char_traits@D@std@@@std@@MAEHH@Z 0043ea50 f i libcpmtd:cout.obj
 0001:0003da70       ?pbackfail@?$basic_streambuf@DU?$char_traits@D@std@@@std@@MAEHH@Z 0043ea70 f i libcpmtd:cout.obj
 0001:0003da90       ?showmanyc@?$basic_streambuf@DU?$char_traits@D@std@@@std@@MAE_JXZ 0043ea90 f i libcpmtd:cout.obj
 0001:0003dab0       ?underflow@?$basic_streambuf@DU?$char_traits@D@std@@@std@@MAEHXZ 0043eab0 f i libcpmtd:cout.obj
 0001:0003dad0       ?uflow@?$basic_streambuf@DU?$char_traits@D@std@@@std@@MAEHXZ 0043ead0 f i libcpmtd:cout.obj
 0001:0003db30       ?xsgetn@?$basic_streambuf@DU?$char_traits@D@std@@@std@@MAE_JPAD_J@Z 0043eb30 f i libcpmtd:cout.obj
 0001:0003dc70       ?copy@?$char_traits@D@std@@SAPADPADPBDI@Z 0043ec70 f i libcpmtd:cout.obj
 0001:0003dc90       ?to_char_type@?$char_traits@D@std@@SADABH@Z 0043ec90 f i libcpmtd:cout.obj
 0001:0003dca0       ?xsputn@?$basic_streambuf@DU?$char_traits@D@std@@@std@@MAE_JPBD_J@Z 0043eca0 f i libcpmtd:cout.obj
 0001:0003dde0       ?seekoff@?$basic_streambuf@DU?$char_traits@D@std@@@std@@MAE?AV?$fpos@H@2@_JHH@Z 0043ede0 f i libcpmtd:cout.obj
 0001:0003de10       ?seekpos@?$basic_streambuf@DU?$char_traits@D@std@@@std@@MAE?AV?$fpos@H@2@V32@H@Z 0043ee10 f i libcpmtd:cout.obj
 0001:0003de40       ?setbuf@?$basic_streambuf@DU?$char_traits@D@std@@@std@@MAEPAV12@PAD_J@Z 0043ee40 f i libcpmtd:cout.obj
 0001:0003de60       ?sync@?$basic_streambuf@DU?$char_traits@D@std@@@std@@MAEHXZ 0043ee60 f i libcpmtd:cout.obj
 0001:0003de70       ?imbue@?$basic_streambuf@DU?$char_traits@D@std@@@std@@MAEXABVlocale@2@@Z 0043ee70 f i libcpmtd:cout.obj
 0001:0003de80       ?_Lock@?$basic_filebuf@DU?$char_traits@D@std@@@std@@UAEXXZ 0043ee80 f i libcpmtd:cout.obj
 0001:0003deb0       ?_Unlock@?$basic_filebuf@DU?$char_traits@D@std@@@std@@UAEXXZ 0043eeb0 f i libcpmtd:cout.obj
 0001:0003dee0       ?overflow@?$basic_filebuf@DU?$char_traits@D@std@@@std@@MAEHH@Z 0043eee0 f i libcpmtd:cout.obj
 0001:0003e360       ?not_eof@?$char_traits@D@std@@SAHABH@Z 0043f360 f i libcpmtd:cout.obj
 0001:0003e3a0       ??$_Fputc@D@std@@YA_NDPAU_iobuf@@@Z 0043f3a0 f i libcpmtd:cout.obj
 0001:0003e3d0       ??1?$basic_string@DU?$char_traits@D@std@@V?$allocator@D@2@@std@@QAE@XZ 0043f3d0 f i libcpmtd:cout.obj
 0001:0003e430       ?pbackfail@?$basic_filebuf@DU?$char_traits@D@std@@@std@@MAEHH@Z 0043f430 f i libcpmtd:cout.obj
 0001:0003e580       ??$_Ungetc@D@std@@YA_NABDPAU_iobuf@@@Z 0043f580 f i libcpmtd:cout.obj
 0001:0003e5b0       ?underflow@?$basic_filebuf@DU?$char_traits@D@std@@@std@@MAEHXZ 0043f5b0 f i libcpmtd:cout.obj
 0001:0003e650       ?uflow@?$basic_filebuf@DU?$char_traits@D@std@@@std@@MAEHXZ 0043f650 f i libcpmtd:cout.obj
 0001:0003ea60       ??$_Fgetc@D@std@@YA_NAADPAU_iobuf@@@Z 0043fa60 f i libcpmtd:cout.obj
 0001:0003ea90       ?seekoff@?$basic_filebuf@DU?$char_traits@D@std@@@std@@MAE?AV?$fpos@H@2@_JHH@Z 0043fa90 f i libcpmtd:cout.obj
 0001:0003eb70       ?seekpos@?$basic_filebuf@DU?$char_traits@D@std@@@std@@MAE?AV?$fpos@H@2@V32@H@Z 0043fb70 f i libcpmtd:cout.obj
 0001:0003ec60       ?setbuf@?$basic_filebuf@DU?$char_traits@D@std@@@std@@MAEPAV?$basic_streambuf@DU?$char_traits@D@std@@@2@PAD_J@Z 0043fc60 f i libcpmtd:cout.obj
 0001:0003ece0       ?sync@?$basic_filebuf@DU?$char_traits@D@std@@@std@@MAEHXZ 0043fce0 f i libcpmtd:cout.obj
 0001:0003ed60       ?imbue@?$basic_filebuf@DU?$char_traits@D@std@@@std@@MAEXABVlocale@2@@Z 0043fd60 f i libcpmtd:cout.obj
 0001:0003ed90       ??_G?$basic_streambuf@DU?$char_traits@D@std@@@std@@UAEPAXI@Z 0043fd90 f i libcpmtd:cout.obj
 0001:0003ed90       ??_E?$basic_streambuf@DU?$char_traits@D@std@@@std@@UAEPAXI@Z 0043fd90 f i libcpmtd:cout.obj
 0001:0003edc0       ??_G?$basic_filebuf@DU?$char_traits@D@std@@@std@@UAEPAXI@Z 0043fdc0 f i libcpmtd:cout.obj
 0001:0003edc0       ??_E?$basic_filebuf@DU?$char_traits@D@std@@@std@@UAEPAXI@Z 0043fdc0 f i libcpmtd:cout.obj
 0001:0003edf0       ??1?$basic_filebuf@DU?$char_traits@D@std@@@std@@UAE@XZ 0043fdf0 f i libcpmtd:cout.obj
 0001:0003ee70       ??1?$_String_iterator@DU?$char_traits@D@std@@V?$allocator@D@2@@std@@QAE@XZ 0043fe70 f i libcpmtd:cout.obj
 0001:0003ee90       ??1?$_String_const_iterator@DU?$char_traits@D@std@@V?$allocator@D@2@@std@@QAE@XZ 0043fe90 f i libcpmtd:cout.obj
 0001:0003eeb0       ??1?$_Iterator012@Urandom_access_iterator_tag@std@@DHPBDABDU_Iterator_base12@2@@std@@QAE@XZ 0043feb0 f i libcpmtd:cout.obj
 0001:0003eed0       ??1_Iterator_base12@std@@QAE@XZ 0043fed0 f i libcpmtd:cout.obj
 0001:0003ef40       ?_Orphan_me@_Iterator_base12@std@@QAEXXZ 0043ff40 f i libcpmtd:cout.obj
 0001:0003efc0       ??0?$basic_string@DU?$char_traits@D@std@@V?$allocator@D@2@@std@@QAE@XZ 0043ffc0 f i libcpmtd:cout.obj
 0001:0003f030       ??0?$basic_string@DU?$char_traits@D@std@@V?$allocator@D@2@@std@@QAE@ID@Z 00440030 f i libcpmtd:cout.obj
 0001:0003f0b0       ?append@?$basic_string@DU?$char_traits@D@std@@V?$allocator@D@2@@std@@QAEAAV12@ID@Z 004400b0 f i libcpmtd:cout.obj
 0001:0003f130       ?erase@?$basic_string@DU?$char_traits@D@std@@V?$allocator@D@2@@std@@QAEAAV12@II@Z 00440130 f i libcpmtd:cout.obj
 0001:0003f1c0       ?move@?$char_traits@D@std@@SAPADPADPBDI@Z 004401c0 f i libcpmtd:cout.obj
 0001:0003f1e0       ?begin@?$basic_string@DU?$char_traits@D@std@@V?$allocator@D@2@@std@@QAE?AV?$_String_iterator@DU?$char_traits@D@std@@V?$allocator@D@2@@2@XZ 004401e0 f i libcpmtd:cout.obj
 0001:0003f220       ?size@?$basic_string@DU?$char_traits@D@std@@V?$allocator@D@2@@std@@QBEIXZ 00440220 f i libcpmtd:cout.obj
 0001:0003f240       ?_Tidy@?$basic_string@DU?$char_traits@D@std@@V?$allocator@D@2@@std@@QAEX_NI@Z 00440240 f i libcpmtd:cout.obj
 0001:0003f2c0       ??0?$_String_val@DV?$allocator@D@std@@@std@@QAE@V?$allocator@D@1@@Z 004402c0 f i libcpmtd:cout.obj
 0001:0003f370       ??0_Container_proxy@std@@QAE@XZ 00440370 f i libcpmtd:cout.obj
 0001:0003f3a0       ??0_Container_base12@std@@QAE@XZ 004403a0 f i libcpmtd:cout.obj
 0001:0003f3c0       ??1_Container_base12@std@@QAE@XZ 004403c0 f i libcpmtd:cout.obj
 0001:0003f3e0       ?_Orphan_all@_Container_base12@std@@QAEXXZ 004403e0 f i libcpmtd:cout.obj
 0001:0003f450       ??1?$_String_val@DV?$allocator@D@std@@@std@@QAE@XZ 00440450 f i libcpmtd:cout.obj
 0001:0003f4f0       ??0?$allocator@D@std@@QAE@XZ 004404f0 f i libcpmtd:cout.obj
 0001:0003f500       ??0?$basic_streambuf@DU?$char_traits@D@std@@@std@@IAE@XZ 00440500 f i libcpmtd:cout.obj
 0001:0003f5b0       ??0locale@std@@QAE@XZ      004405b0 f i libcpmtd:cout.obj
 0001:0003f5e0       ?_Incref@facet@locale@std@@QAEXXZ 004405e0 f i libcpmtd:cout.obj
 0001:0003f620       ?eback@?$basic_streambuf@DU?$char_traits@D@std@@@std@@IBEPADXZ 00440620 f i libcpmtd:cout.obj
 0001:0003f640       ?gptr@?$basic_streambuf@DU?$char_traits@D@std@@@std@@IBEPADXZ 00440640 f i libcpmtd:cout.obj
 0001:0003f660       ?pptr@?$basic_streambuf@DU?$char_traits@D@std@@@std@@IBEPADXZ 00440660 f i libcpmtd:cout.obj
 0001:0003f680       ?egptr@?$basic_streambuf@DU?$char_traits@D@std@@@std@@IBEPADXZ 00440680 f i libcpmtd:cout.obj
 0001:0003f6a0       ?gbump@?$basic_streambuf@DU?$char_traits@D@std@@@std@@IAEXH@Z 004406a0 f i libcpmtd:cout.obj
 0001:0003f6e0       ?epptr@?$basic_streambuf@DU?$char_traits@D@std@@@std@@IBEPADXZ 004406e0 f i libcpmtd:cout.obj
 0001:0003f700       ?_Gndec@?$basic_streambuf@DU?$char_traits@D@std@@@std@@IAEPADXZ 00440700 f i libcpmtd:cout.obj
 0001:0003f740       ?_Gninc@?$basic_streambuf@DU?$char_traits@D@std@@@std@@IAEPADXZ 00440740 f i libcpmtd:cout.obj
 0001:0003f790       ?_Gnavail@?$basic_streambuf@DU?$char_traits@D@std@@@std@@IBE_JXZ 00440790 f i libcpmtd:cout.obj
 0001:0003f7d0       ?pbump@?$basic_streambuf@DU?$char_traits@D@std@@@std@@IAEXH@Z 004407d0 f i libcpmtd:cout.obj
 0001:0003f810       ?close@?$basic_filebuf@DU?$char_traits@D@std@@@std@@QAEPAV12@XZ 00440810 f i libcpmtd:cout.obj
 0001:0003f880       ?_Init@?$basic_filebuf@DU?$char_traits@D@std@@@std@@IAEXPAU_iobuf@@W4_Initfl@12@@Z 00440880 f i libcpmtd:cout.obj
 0001:0003f920       ?_Endwrite@?$basic_filebuf@DU?$char_traits@D@std@@@std@@IAE_NXZ 00440920 f i libcpmtd:cout.obj
 0001:0003fc50       ?_Initcvt@?$basic_filebuf@DU?$char_traits@D@std@@@std@@IAEXPBV?$codecvt@DDH@2@@Z 00440c50 f i libcpmtd:cout.obj
 0001:0003fc90       ?always_noconv@codecvt_base@std@@QBE_NXZ 00440c90 f i libcpmtd:cout.obj
 0001:0003fcb0       ?_Reset_back@?$basic_filebuf@DU?$char_traits@D@std@@@std@@AAEXXZ 00440cb0 f i libcpmtd:cout.obj
 0001:0003fcf0       ?_Set_back@?$basic_filebuf@DU?$char_traits@D@std@@@std@@AAEXXZ 00440cf0 f i libcpmtd:cout.obj
 0001:0003fd50       ??0?$fpos@H@std@@QAE@_J@Z  00440d50 f i libcpmtd:cout.obj
 0001:0003fd90       ??0?$fpos@H@std@@QAE@H_J@Z 00440d90 f i libcpmtd:cout.obj
 0001:0003fdd0       ?state@?$fpos@H@std@@QBEHXZ 00440dd0 f i libcpmtd:cout.obj
 0001:0003fdf0       ?seekpos@?$fpos@H@std@@QBE_JXZ 00440df0 f i libcpmtd:cout.obj
 0001:0003fe10       ??B?$fpos@H@std@@QBE_JXZ   00440e10 f i libcpmtd:cout.obj
 0001:0003fe30       ?in@?$codecvt@DDH@std@@QBEHAAHPBD1AAPBDPAD3AAPAD@Z 00440e30 f i libcpmtd:cout.obj
 0001:0003fe70       ?out@?$codecvt@DDH@std@@QBEHAAHPBD1AAPBDPAD3AAPAD@Z 00440e70 f i libcpmtd:cout.obj
 0001:0003feb0       ??D?$_String_iterator@DU?$char_traits@D@std@@V?$allocator@D@2@@std@@QBEAADXZ 00440eb0 f i libcpmtd:cout.obj
 0001:0003fed0       ?assign@?$basic_string@DU?$char_traits@D@std@@V?$allocator@D@2@@std@@QAEAAV12@ID@Z 00440ed0 f i libcpmtd:cout.obj
 0001:0003ff30       ?_Chassign@?$basic_string@DU?$char_traits@D@std@@V?$allocator@D@2@@std@@QAEXIID@Z 00440f30 f i libcpmtd:cout.obj
 0001:0003ff80       ?assign@?$char_traits@D@std@@SAPADPADID@Z 00440f80 f i libcpmtd:cout.obj
 0001:0003ffa0       ?assign@?$char_traits@D@std@@SAXAADABD@Z 00440fa0 f i libcpmtd:cout.obj
 0001:0003ffc0       ?_Eos@?$basic_string@DU?$char_traits@D@std@@V?$allocator@D@2@@std@@QAEXI@Z 00440fc0 f i libcpmtd:cout.obj
 0001:00040000       ?_Grow@?$basic_string@DU?$char_traits@D@std@@V?$allocator@D@2@@std@@QAE_NI_N@Z 00441000 f i libcpmtd:cout.obj
 0001:000400a0       ?_Myptr@?$basic_string@DU?$char_traits@D@std@@V?$allocator@D@2@@std@@QAEPADXZ 004410a0 f i libcpmtd:cout.obj
 0001:000400d0       ?_Xlen@?$basic_string@DU?$char_traits@D@std@@V?$allocator@D@2@@std@@QBEXXZ 004410d0 f i libcpmtd:cout.obj
 0001:000400f0       ?_Xran@?$basic_string@DU?$char_traits@D@std@@V?$allocator@D@2@@std@@QBEXXZ 004410f0 f i libcpmtd:cout.obj
 0001:00040110       ??0?$allocator@D@std@@QAE@ABV01@@Z 00441110 f i libcpmtd:cout.obj
 0001:00040130       ?deallocate@?$allocator@D@std@@QAEXPADI@Z 00441130 f i libcpmtd:cout.obj
 0001:00040150       ?setg@?$basic_streambuf@DU?$char_traits@D@std@@@std@@IAEXPAD00@Z 00441150 f i libcpmtd:cout.obj
 0001:00040190       ?_Init@?$basic_streambuf@DU?$char_traits@D@std@@@std@@IAEXXZ 00441190 f i libcpmtd:cout.obj
 0001:00040200       ?_Init@?$basic_streambuf@DU?$char_traits@D@std@@@std@@IAEXPAPAD0PAH001@Z 00441200 f i libcpmtd:cout.obj
 0001:00040250       ??D?$_String_const_iterator@DU?$char_traits@D@std@@V?$allocator@D@2@@std@@QBEABDXZ 00441250 f i libcpmtd:cout.obj
 0001:00040310       ?_Getcont@_Iterator_base12@std@@QBEPBU_Container_base12@2@XZ 00441310 f i libcpmtd:cout.obj
 0001:00040340       ?unshift@?$codecvt@DDH@std@@QBEHAAHPAD1AAPAD@Z 00441340 f i libcpmtd:cout.obj
 0001:00040370       ??0?$_String_iterator@DU?$char_traits@D@std@@V?$allocator@D@2@@std@@QAE@PADPBU_Container_base12@1@@Z 00441370 f i libcpmtd:cout.obj
 0001:000403a0       ?deallocate@?$allocator@U_Container_proxy@std@@@std@@QAEXPAU_Container_proxy@2@I@Z 004413a0 f i libcpmtd:cout.obj
 0001:000403c0       ?allocate@?$allocator@U_Container_proxy@std@@@std@@QAEPAU_Container_proxy@2@I@Z 004413c0 f i libcpmtd:cout.obj
 0001:000403e0       ?max_size@?$basic_string@DU?$char_traits@D@std@@V?$allocator@D@2@@std@@QBEIXZ 004413e0 f i libcpmtd:cout.obj
 0001:00040420       ?_Copy@?$basic_string@DU?$char_traits@D@std@@V?$allocator@D@2@@std@@QAEXII@Z 00441420 f i libcpmtd:cout.obj
 0001:000405b0       ?setp@?$basic_streambuf@DU?$char_traits@D@std@@@std@@IAEXPAD0@Z 004415b0 f i libcpmtd:cout.obj
 0001:000405f0       ??0?$_String_const_iterator@DU?$char_traits@D@std@@V?$allocator@D@2@@std@@QAE@PBDPBU_Container_base12@1@@Z 004415f0 f i libcpmtd:cout.obj
 0001:00040660       ?_Adopt@_Iterator_base12@std@@QAEXPBU_Container_base12@2@@Z 00441660 f i libcpmtd:cout.obj
 0001:00040700       ??0?$_Iterator012@Urandom_access_iterator_tag@std@@DHPBDABDU_Iterator_base12@2@@std@@QAE@XZ 00441700 f i libcpmtd:cout.obj
 0001:00040720       ??0_Iterator_base12@std@@QAE@XZ 00441720 f i libcpmtd:cout.obj
 0001:00040750       ?allocate@?$allocator@D@std@@QAEPADI@Z 00441750 f i libcpmtd:cout.obj
 0001:00040770       ?max_size@?$allocator@D@std@@QBEIXZ 00441770 f i libcpmtd:cout.obj
 0001:000407a0       ??$_DebugHeapDelete@Vlocale@std@@@std@@YAXPAVlocale@0@@Z 004417a0 f i libcpmtd:cout.obj
 0001:000407d0       ??$use_facet@V?$codecvt@DDH@std@@@std@@YAABV?$codecvt@DDH@0@ABVlocale@0@@Z 004417d0 f i libcpmtd:cout.obj
 0001:000408c0       ??Bid@locale@std@@QAEIXZ   004418c0 f i libcpmtd:cout.obj
 0001:00040910       ?_Register@facet@locale@std@@QAEXXZ 00441910 f i libcpmtd:cout.obj
 0001:00040930       ?_Getfacet@locale@std@@QBEPBVfacet@12@I@Z 00441930 f i libcpmtd:cout.obj
 0001:000409c0       ??$?0D@?$allocator@U_Container_proxy@std@@@std@@QAE@ABV?$allocator@D@1@@Z 004419c0 f i libcpmtd:cout.obj
 0001:000409e0       ??$_Cons_val@V?$allocator@U_Container_proxy@std@@@std@@U_Container_proxy@2@U32@@std@@YAXAAV?$allocator@U_Container_proxy@std@@@0@PAU_Container_proxy@0@$$QAU20@@Z 004419e0 f i libcpmtd:cout.obj
 0001:00040a00       ??$_Dest_val@V?$allocator@U_Container_proxy@std@@@std@@U_Container_proxy@2@@std@@YAXAAV?$allocator@U_Container_proxy@std@@@0@PAU_Container_proxy@0@@Z 00441a00 f i libcpmtd:cout.obj
 0001:00040a20       ??$_Allocate@U_Container_proxy@std@@@std@@YAPAU_Container_proxy@0@IPAU10@@Z 00441a20 f i libcpmtd:cout.obj
 0001:00040a80       ??0bad_alloc@std@@QAE@PBD@Z 00441a80 f i libcpmtd:cout.obj
 0001:00040ab0       ??$_Allocate@D@std@@YAPADIPAD@Z 00441ab0 f i libcpmtd:cout.obj
 0001:00040b10       ??_Glocale@std@@QAEPAXI@Z  00441b10 f i libcpmtd:cout.obj
 0001:00040b40       ??1locale@std@@QAE@XZ      00441b40 f i libcpmtd:cout.obj
 0001:00040b70       ?_Decref@facet@locale@std@@QAEPAV123@XZ 00441b70 f i libcpmtd:cout.obj
 0001:00040bd0       ??$_DebugHeapDelete@Vfacet@locale@std@@@std@@YAXPAVfacet@locale@0@@Z 00441bd0 f i libcpmtd:cout.obj
 0001:00040c00       ?_Getcat@?$codecvt@DDH@std@@SAIPAPBVfacet@locale@2@PBV42@@Z 00441c00 f i libcpmtd:cout.obj
 0001:00040d00       ??0_Locinfo@std@@QAE@PBD@Z 00441d00 f i libcpmtd:cout.obj
 0001:00040dd0       ??1_Locinfo@std@@QAE@XZ    00441dd0 f i libcpmtd:cout.obj
 0001:00040e70       ??2facet@locale@std@@SAPAXIABU_DebugHeapTag_t@2@PADH@Z 00441e70 f i libcpmtd:cout.obj
 0001:00040e90       ??3facet@locale@std@@SAXPAXABU_DebugHeapTag_t@2@PADH@Z 00441e90 f i libcpmtd:cout.obj
 0001:00040eb0       ??3facet@locale@std@@SAXPAX@Z 00441eb0 f i libcpmtd:cout.obj
 0001:00040ed0       ?c_str@locale@std@@QBEPBDXZ 00441ed0 f i libcpmtd:cout.obj
 0001:00040ef0       ??0?$_Yarn@D@std@@QAE@XZ   00441ef0 f i libcpmtd:cout.obj
 0001:00040f10       ??1?$_Yarn@D@std@@QAE@XZ   00441f10 f i libcpmtd:cout.obj
 0001:00040f30       ?c_str@?$_Yarn@D@std@@QBEPBDXZ 00441f30 f i libcpmtd:cout.obj
 0001:00040f60       ?_Tidy@?$_Yarn@D@std@@AAEXXZ 00441f60 f i libcpmtd:cout.obj
 0001:00040f90       ?construct@?$allocator@U_Container_proxy@std@@@std@@QAEXPAU_Container_proxy@2@$$QAU32@@Z 00441f90 f i libcpmtd:cout.obj
 0001:00041020       ??2@YAPAXIPAX@Z            00442020 f i libcpmtd:cout.obj
 0001:00041030       ??3@YAXPAX0@Z              00442030 f i libcpmtd:cout.obj
 0001:00041040       ?destroy@?$allocator@U_Container_proxy@std@@@std@@QAEXPAU_Container_proxy@2@@Z 00442040 f i libcpmtd:cout.obj
 0001:00041060       ??0?$codecvt@DDH@std@@QAE@ABV_Locinfo@1@I@Z 00442060 f i libcpmtd:cout.obj
 0001:000410d0       ??0codecvt_base@std@@QAE@I@Z 004420d0 f i libcpmtd:cout.obj
 0001:00041100       ??0facet@locale@std@@IAE@I@Z 00442100 f i libcpmtd:cout.obj
 0001:00041130       ??_Efacet@locale@std@@UAEPAXI@Z 00442130 f i libcpmtd:cout.obj
 0001:00041130       ??_Gfacet@locale@std@@UAEPAXI@Z 00442130 f i libcpmtd:cout.obj
 0001:00041160       ??1facet@locale@std@@UAE@XZ 00442160 f i libcpmtd:cout.obj
 0001:00041180       ??1codecvt_base@std@@UAE@XZ 00442180 f i libcpmtd:cout.obj
 0001:000411a0       ?do_always_noconv@codecvt_base@std@@MBE_NXZ 004421a0 f i libcpmtd:cout.obj
 0001:000411b0       ?do_max_length@codecvt_base@std@@MBEHXZ 004421b0 f i libcpmtd:cout.obj
 0001:000411d0       ?do_encoding@codecvt_base@std@@MBEHXZ 004421d0 f i libcpmtd:cout.obj
 0001:000411f0       ??_Ecodecvt_base@std@@UAEPAXI@Z 004421f0 f i libcpmtd:cout.obj
 0001:000411f0       ??_Gcodecvt_base@std@@UAEPAXI@Z 004421f0 f i libcpmtd:cout.obj
 0001:00041220       ?do_in@?$codecvt@DDH@std@@MBEHAAHPBD1AAPBDPAD3AAPAD@Z 00442220 f i libcpmtd:cout.obj
 0001:00041250       ?do_out@?$codecvt@DDH@std@@MBEHAAHPBD1AAPBDPAD3AAPAD@Z 00442250 f i libcpmtd:cout.obj
 0001:00041280       ?do_unshift@?$codecvt@DDH@std@@MBEHAAHPAD1AAPAD@Z 00442280 f i libcpmtd:cout.obj
 0001:000412a0       ?do_length@?$codecvt@DDH@std@@MBEHABHPBD1I@Z 004422a0 f i libcpmtd:cout.obj
 0001:000412d0       ??_G?$codecvt@DDH@std@@MAEPAXI@Z 004422d0 f i libcpmtd:cout.obj
 0001:000412d0       ??_E?$codecvt@DDH@std@@MAEPAXI@Z 004422d0 f i libcpmtd:cout.obj
 0001:00041300       ??1?$codecvt@DDH@std@@MAE@XZ 00442300 f i libcpmtd:cout.obj
 0001:00041320       ?_Init@?$codecvt@DDH@std@@IAEXABV_Locinfo@2@@Z 00442320 f i libcpmtd:cout.obj
 0001:00041330       ??$forward@U_Container_proxy@std@@@std@@YA$$QAU_Container_proxy@0@AAU10@@Z 00442330 f i libcpmtd:cout.obj
 0001:00041340       ??$_Destroy@U_Container_proxy@std@@@std@@YAXPAU_Container_proxy@0@@Z 00442340 f i libcpmtd:cout.obj
 0001:00041350       ??0?$basic_ostream@DU?$char_traits@D@std@@@std@@QAE@PAV?$basic_streambuf@DU?$char_traits@D@std@@@1@_N@Z 00442350 f i libcpmtd:cout.obj
 0001:00041400       ??1?$basic_ios@DU?$char_traits@D@std@@@std@@UAE@XZ 00442400 f i libcpmtd:cout.obj
 0001:00041420       ??1ios_base@std@@UAE@XZ    00442420 f i libcpmtd:cout.obj
 0001:00041450       ??_Gios_base@std@@UAEPAXI@Z 00442450 f i libcpmtd:cout.obj
 0001:00041450       ??_Eios_base@std@@UAEPAXI@Z 00442450 f i libcpmtd:cout.obj
 0001:00041480       ??_E?$basic_ostream@DU?$char_traits@D@std@@@std@@UAEPAXI@Z 00442480 f i libcpmtd:cout.obj
 0001:00041480       ??_G?$basic_ostream@DU?$char_traits@D@std@@@std@@UAEPAXI@Z 00442480 f i libcpmtd:cout.obj
 0001:000414c0       ??_D?$basic_ostream@DU?$char_traits@D@std@@@std@@QAEXXZ 004424c0 f i libcpmtd:cout.obj
 0001:000414f0       ??1?$basic_ostream@DU?$char_traits@D@std@@@std@@UAE@XZ 004424f0 f i libcpmtd:cout.obj
 0001:00041520       ??_E?$basic_ios@DU?$char_traits@D@std@@@std@@UAEPAXI@Z 00442520 f i libcpmtd:cout.obj
 0001:00041520       ??_G?$basic_ios@DU?$char_traits@D@std@@@std@@UAEPAXI@Z 00442520 f i libcpmtd:cout.obj
 0001:00041550       ?init@?$basic_ios@DU?$char_traits@D@std@@@std@@IAEXPAV?$basic_streambuf@DU?$char_traits@D@std@@@2@_N@Z 00442550 f i libcpmtd:cout.obj
 0001:000415c0       ?_Init@ios_base@std@@IAEXXZ 004425c0 f i libcpmtd:cout.obj
 0001:00041680       ?clear@ios_base@std@@QAEXH@Z 00442680 f i libcpmtd:cout.obj
 0001:000416a0       ??0?$basic_ios@DU?$char_traits@D@std@@@std@@IAE@XZ 004426a0 f i libcpmtd:cout.obj
 0001:000416d0       ??0ios_base@std@@IAE@XZ    004426d0 f i libcpmtd:cout.obj
 0001:000416f0       ?widen@?$basic_ios@DU?$char_traits@D@std@@@std@@QBEDD@Z 004426f0 f i libcpmtd:cout.obj
 0001:00041780       ?widen@?$ctype@D@std@@QBEDD@Z 00442780 f i libcpmtd:cout.obj
 0001:000417b0       ?getloc@ios_base@std@@QBE?AVlocale@2@XZ 004427b0 f i libcpmtd:cout.obj
 0001:000417f0       ??0locale@std@@QAE@ABV01@@Z 004427f0 f i libcpmtd:cout.obj
 0001:00041820       ??$use_facet@V?$ctype@D@std@@@std@@YAABV?$ctype@D@0@ABVlocale@0@@Z 00442820 f i libcpmtd:cout.obj
 0001:00041910       ?_Getcat@?$ctype@D@std@@SAIPAPBVfacet@locale@2@PBV42@@Z 00442910 f i libcpmtd:cout.obj
 0001:00041a10       ??0?$ctype@D@std@@QAE@ABV_Locinfo@1@I@Z 00442a10 f i libcpmtd:cout.obj
 0001:00041a80       ??0ctype_base@std@@QAE@I@Z 00442a80 f i libcpmtd:cout.obj
 0001:00041ab0       ??1ctype_base@std@@UAE@XZ  00442ab0 f i libcpmtd:cout.obj
 0001:00041ad0       ??_Gctype_base@std@@UAEPAXI@Z 00442ad0 f i libcpmtd:cout.obj
 0001:00041ad0       ??_Ectype_base@std@@UAEPAXI@Z 00442ad0 f i libcpmtd:cout.obj
 0001:00041b00       ?_Init@?$ctype@D@std@@IAEXABV_Locinfo@2@@Z 00442b00 f i libcpmtd:cout.obj
 0001:00041b40       ?_Getctype@_Locinfo@std@@QBE?AU_Ctypevec@@XZ 00442b40 f i libcpmtd:cout.obj
 0001:00041ba0       ?do_tolower@?$ctype@D@std@@MBEDD@Z 00442ba0 f i libcpmtd:cout.obj
 0001:00041bd0       ?do_tolower@?$ctype@D@std@@MBEPBDPADPBD@Z 00442bd0 f i libcpmtd:cout.obj
 0001:00041c30       ?do_toupper@?$ctype@D@std@@MBEDD@Z 00442c30 f i libcpmtd:cout.obj
 0001:00041c60       ?do_toupper@?$ctype@D@std@@MBEPBDPADPBD@Z 00442c60 f i libcpmtd:cout.obj
 0001:00041cc0       ?do_widen@?$ctype@D@std@@MBEDD@Z 00442cc0 f i libcpmtd:cout.obj
 0001:00041ce0       ?do_widen@?$ctype@D@std@@MBEPBDPBD0PAD@Z 00442ce0 f i libcpmtd:cout.obj
 0001:00041d40       ?do_narrow@?$ctype@D@std@@MBEDDD@Z 00442d40 f i libcpmtd:cout.obj
 0001:00041d60       ?do_narrow@?$ctype@D@std@@MBEPBDPBD0DPAD@Z 00442d60 f i libcpmtd:cout.obj
 0001:00041dc0       ??_G?$ctype@D@std@@MAEPAXI@Z 00442dc0 f i libcpmtd:cout.obj
 0001:00041dc0       ??_E?$ctype@D@std@@MAEPAXI@Z 00442dc0 f i libcpmtd:cout.obj
 0001:00041df0       ??1?$ctype@D@std@@MAE@XZ   00442df0 f i libcpmtd:cout.obj
 0001:00041e50       ?_Tidy@?$ctype@D@std@@IAEXXZ 00442e50 f i libcpmtd:cout.obj
 0001:00041ea0       ??$_Debug_range@PBD@std@@YAXPBD0PB_WI@Z 00442ea0 f i libcpmtd:cout.obj
 0001:00041ee0       ??$_Debug_pointer@D@std@@YAXPADPB_WI@Z 00442ee0 f i libcpmtd:cout.obj
 0001:00041f10       ??$_Iter_cat@PBD@std@@YA?AUrandom_access_iterator_tag@0@ABQBD@Z 00442f10 f i libcpmtd:cout.obj
 0001:00041f30       ??$_Debug_range2@PBD@std@@YAXPBD0PB_WIUrandom_access_iterator_tag@0@@Z 00442f30 f i libcpmtd:cout.obj
 0001:00041f90       ??$_Debug_pointer@D@std@@YAXPBDPB_WI@Z 00442f90 f i libcpmtd:cout.obj
 0001:00041fc0       ??0_Init_cout@std@@QAE@XZ  00442fc0 f i libcpmtd:cout.obj
 0001:00042050       ?tie@?$basic_ios@DU?$char_traits@D@std@@@std@@QAEPAV?$basic_ostream@DU?$char_traits@D@std@@@2@PAV32@@Z 00443050 f i libcpmtd:cout.obj
 0001:00042080       ??0id@locale@std@@QAE@I@Z  00443080 f i libcpmtd:cout.obj
 0001:000420a0       ?generic_category@std@@YAABVerror_category@1@XZ 004430a0 f   libcpmtd:syserror.obj
 0001:000420b0       ?iostream_category@std@@YAABVerror_category@1@XZ 004430b0 f   libcpmtd:syserror.obj
 0001:000420c0       ?system_category@std@@YAABVerror_category@1@XZ 004430c0 f   libcpmtd:syserror.obj
 0001:000420d0       ??0_Generic_error_category@std@@QAE@XZ 004430d0 f i libcpmtd:syserror.obj
 0001:00042100       ??0error_category@std@@QAE@XZ 00443100 f i libcpmtd:syserror.obj
 0001:00042120       ??_Gerror_category@std@@UAEPAXI@Z 00443120 f i libcpmtd:syserror.obj
 0001:00042120       ??_Eerror_category@std@@UAEPAXI@Z 00443120 f i libcpmtd:syserror.obj
 0001:00042150       ??1error_category@std@@UAE@XZ 00443150 f i libcpmtd:syserror.obj
 0001:00042170       ?default_error_condition@error_category@std@@UBE?AVerror_condition@2@H@Z 00443170 f i libcpmtd:syserror.obj
 0001:000421a0       ??0error_condition@std@@QAE@HABVerror_category@1@@Z 004431a0 f i libcpmtd:syserror.obj
 0001:000421d0       ?equivalent@error_category@std@@UBE_NHABVerror_condition@2@@Z 004431d0 f i libcpmtd:syserror.obj
 0001:00042210       ??8error_condition@std@@QBE_NABV01@@Z 00443210 f i libcpmtd:syserror.obj
 0001:00042270       ??8error_category@std@@QBE_NABV01@@Z 00443270 f i libcpmtd:syserror.obj
 0001:00042290       ?value@error_condition@std@@QBEHXZ 00443290 f i libcpmtd:syserror.obj
 0001:000422b0       ?category@error_condition@std@@QBEABVerror_category@2@XZ 004432b0 f i libcpmtd:syserror.obj
 0001:000422d0       ?equivalent@error_category@std@@UBE_NABVerror_code@2@H@Z 004432d0 f i libcpmtd:syserror.obj
 0001:00042320       ?value@error_code@std@@QBEHXZ 00443320 f i libcpmtd:syserror.obj
 0001:00042340       ?category@error_code@std@@QBEABVerror_category@2@XZ 00443340 f i libcpmtd:syserror.obj
 0001:00042360       ?name@_Generic_error_category@std@@UBEPBDXZ 00443360 f i libcpmtd:syserror.obj
 0001:00042380       ?message@_Generic_error_category@std@@UBE?AV?$basic_string@DU?$char_traits@D@std@@V?$allocator@D@2@@2@H@Z 00443380 f i libcpmtd:syserror.obj
 0001:000423c0       ??_E_Generic_error_category@std@@UAEPAXI@Z 004433c0 f i libcpmtd:syserror.obj
 0001:000423c0       ??_G_Generic_error_category@std@@UAEPAXI@Z 004433c0 f i libcpmtd:syserror.obj
 0001:000423f0       ??1_Generic_error_category@std@@UAE@XZ 004433f0 f i libcpmtd:syserror.obj
 0001:00042410       ??0?$basic_string@DU?$char_traits@D@std@@V?$allocator@D@2@@std@@QAE@PBD@Z 00443410 f i libcpmtd:syserror.obj
 0001:00042490       ?assign@?$basic_string@DU?$char_traits@D@std@@V?$allocator@D@2@@std@@QAEAAV12@PBD@Z 00443490 f i libcpmtd:syserror.obj
 0001:000424d0       ?assign@?$basic_string@DU?$char_traits@D@std@@V?$allocator@D@2@@std@@QAEAAV12@PBDI@Z 004434d0 f i libcpmtd:syserror.obj
 0001:00042570       ?assign@?$basic_string@DU?$char_traits@D@std@@V?$allocator@D@2@@std@@QAEAAV12@ABV12@II@Z 00443570 f i libcpmtd:syserror.obj
 0001:00042630       ?_Myptr@?$basic_string@DU?$char_traits@D@std@@V?$allocator@D@2@@std@@QBEPBDXZ 00443630 f i libcpmtd:syserror.obj
 0001:00042660       ?_Inside@?$basic_string@DU?$char_traits@D@std@@V?$allocator@D@2@@std@@QAE_NPBD@Z 00443660 f i libcpmtd:syserror.obj
 0001:000426a0       ??0_Iostream_error_category@std@@QAE@XZ 004436a0 f i libcpmtd:syserror.obj
 0001:000426d0       ?name@_Iostream_error_category@std@@UBEPBDXZ 004436d0 f i libcpmtd:syserror.obj
 0001:000426f0       ?message@_Iostream_error_category@std@@UBE?AV?$basic_string@DU?$char_traits@D@std@@V?$allocator@D@2@@2@H@Z 004436f0 f i libcpmtd:syserror.obj
 0001:00042750       ??_G_Iostream_error_category@std@@UAEPAXI@Z 00443750 f i libcpmtd:syserror.obj
 0001:00042750       ??_E_Iostream_error_category@std@@UAEPAXI@Z 00443750 f i libcpmtd:syserror.obj
 0001:00042780       ??1_Iostream_error_category@std@@UAE@XZ 00443780 f i libcpmtd:syserror.obj
 0001:000427a0       ??0_System_error_category@std@@QAE@XZ 004437a0 f i libcpmtd:syserror.obj
 0001:000427d0       ?name@_System_error_category@std@@UBEPBDXZ 004437d0 f i libcpmtd:syserror.obj
 0001:000427f0       ?default_error_condition@_System_error_category@std@@UBE?AVerror_condition@2@H@Z 004437f0 f i libcpmtd:syserror.obj
 0001:00042820       ??_G_System_error_category@std@@UAEPAXI@Z 00443820 f i libcpmtd:syserror.obj
 0001:00042820       ??_E_System_error_category@std@@UAEPAXI@Z 00443820 f i libcpmtd:syserror.obj
 0001:00042850       ??1_System_error_category@std@@UAE@XZ 00443850 f i libcpmtd:syserror.obj
 0001:00042870       ?uncaught_exception@std@@YA_NXZ 00443870 f   libcpmtd:uncaught.obj
 0001:00042880       ??0_Init_locks@std@@QAE@XZ 00443880 f   libcpmtd:xlock.obj
 0001:000428d0       ??1_Init_locks@std@@QAE@XZ 004438d0 f   libcpmtd:xlock.obj
 0001:00042920       ?_Init_locks_ctor@_Init_locks@std@@CAXPAV12@@Z 00443920 f   libcpmtd:xlock.obj
 0001:00042970       ?_Init_locks_dtor@_Init_locks@std@@CAXPAV12@@Z 00443970 f   libcpmtd:xlock.obj
 0001:000429c0       ??0_Lockit@std@@QAE@XZ     004439c0 f   libcpmtd:xlock.obj
 0001:000429f0       ??0_Lockit@std@@QAE@H@Z    004439f0 f   libcpmtd:xlock.obj
 0001:00042a30       ??1_Lockit@std@@QAE@XZ     00443a30 f   libcpmtd:xlock.obj
 0001:00042a60       ?_Lockit_ctor@_Lockit@std@@CAXPAV12@@Z 00443a60 f   libcpmtd:xlock.obj
 0001:00042a80       ?_Lockit_ctor@_Lockit@std@@CAXPAV12@H@Z 00443a80 f   libcpmtd:xlock.obj
 0001:00042ab0       ?_Lockit_dtor@_Lockit@std@@CAXPAV12@@Z 00443ab0 f   libcpmtd:xlock.obj
 0001:00042ad0       ?_Lockit_ctor@_Lockit@std@@SAXH@Z 00443ad0 f   libcpmtd:xlock.obj
 0001:00042af0       ?_Lockit_dtor@_Lockit@std@@SAXH@Z 00443af0 f   libcpmtd:xlock.obj
 0001:00042b10       ??0_Mutex@std@@QAE@XZ      00443b10 f   libcpmtd:xmutex.obj
 0001:00042b60       ??1_Mutex@std@@QAE@XZ      00443b60 f   libcpmtd:xmutex.obj
 0001:00042b90       ?_Lock@_Mutex@std@@QAEXXZ  00443b90 f   libcpmtd:xmutex.obj
 0001:00042bb0       ?_Unlock@_Mutex@std@@QAEXXZ 00443bb0 f   libcpmtd:xmutex.obj
 0001:00042bd0       ?_Mutex_ctor@_Mutex@std@@CAXPAV12@@Z 00443bd0 f   libcpmtd:xmutex.obj
 0001:00042c10       ?_Mutex_dtor@_Mutex@std@@CAXPAV12@@Z 00443c10 f   libcpmtd:xmutex.obj
 0001:00042c40       ?_Mutex_Lock@_Mutex@std@@CAXPAV12@@Z 00443c40 f   libcpmtd:xmutex.obj
 0001:00042c60       ?_Mutex_Unlock@_Mutex@std@@CAXPAV12@@Z 00443c60 f   libcpmtd:xmutex.obj
 0001:00042c80       ??$_DebugHeapDelete@U_RTL_CRITICAL_SECTION@@@std@@YAXPAU_RTL_CRITICAL_SECTION@@@Z 00443c80 f i libcpmtd:xmutex.obj
 0001:00042ca0       ?_Ios_base_dtor@ios_base@std@@CAXPAV12@@Z 00443ca0 f   libcpmtd:ios.obj
 0001:00042d00       ?_Tidy@ios_base@std@@AAEXXZ 00443d00 f i libcpmtd:ios.obj
 0001:00042d90       ?_Callfns@ios_base@std@@AAEXW4event@12@@Z 00443d90 f i libcpmtd:ios.obj
 0001:00042de0       ?_Addstd@ios_base@std@@SAXPAV12@@Z 00443de0 f   libcpmtd:ios.obj
 0001:00042e80       ??$_DebugHeapDelete@U_Iosarray@ios_base@std@@@std@@YAXPAU_Iosarray@ios_base@0@@Z 00443e80 f i libcpmtd:ios.obj
 0001:00042ea0       ??$_DebugHeapDelete@U_Fnarray@ios_base@std@@@std@@YAXPAU_Fnarray@ios_base@0@@Z 00443ea0 f i libcpmtd:ios.obj
 0001:00042ec0       ?_Debug_message@std@@YAXPB_W0I@Z 00443ec0 f   libcpmtd:stdthrow.obj
 0001:00042ef0       ?_Debug_message@std@@YAXPBG0I@Z 00443ef0 f   libcpmtd:stdthrow.obj
 0001:00042f10       ??2@YAPAXIABU_DebugHeapTag_t@std@@PADH@Z 00443f10 f   libcpmtd:xdebug.obj
 0001:00042f90       ??_U@YAPAXIABU_DebugHeapTag_t@std@@PADH@Z 00443f90 f   libcpmtd:xdebug.obj
 0001:00042fb0       ??3@YAXPAXABU_DebugHeapTag_t@std@@PADH@Z 00443fb0 f   libcpmtd:xdebug.obj
 0001:00042fd0       ??_V@YAXPAXABU_DebugHeapTag_t@std@@PADH@Z 00443fd0 f   libcpmtd:xdebug.obj
 0001:00042ff0       ?_DebugHeapTag_func@std@@YAABU_DebugHeapTag_t@1@XZ 00443ff0 f   libcpmtd:xdebug.obj
 0001:00043000       ?_Facet_Register@facet@locale@std@@CAXPAV123@@Z 00444000 f   libcpmtd:locale0.obj
 0001:000430a0       ??0_Fac_node@std@@QAE@PAU01@PAVfacet@locale@1@@Z 004440a0 f i libcpmtd:locale0.obj
 0001:000430d0       __Deletegloballocale       004440d0 f   libcpmtd:locale0.obj
 0001:00043100       ?_Getgloballocale@locale@std@@CAPAV_Locimp@12@XZ 00444100 f   libcpmtd:locale0.obj
 0001:00043110       ?_Setgloballocale@locale@std@@CAXPAX@Z 00444110 f   libcpmtd:locale0.obj
 0001:00043180       ?classic@locale@std@@SAABV12@XZ 00444180 f   libcpmtd:locale0.obj
 0001:000431a0       ?empty@locale@std@@SA?AV12@XZ 004441a0 f   libcpmtd:locale0.obj
 0001:00043250       ??0_Locimp@locale@std@@AAE@_N@Z 00444250 f i libcpmtd:locale0.obj
 0001:000432f0       ??0locale@std@@AAE@PAV_Locimp@01@@Z 004442f0 f i libcpmtd:locale0.obj
 0001:00043310       ??_E_Locimp@locale@std@@MAEPAXI@Z 00444310 f i libcpmtd:locale0.obj
 0001:00043310       ??_G_Locimp@locale@std@@MAEPAXI@Z 00444310 f i libcpmtd:locale0.obj
 0001:00043340       ??1_Locimp@locale@std@@MAE@XZ 00444340 f i libcpmtd:locale0.obj
 0001:000433c0       ?_Init@locale@std@@CAPAV_Locimp@12@XZ 004443c0 f   libcpmtd:locale0.obj
 0001:00043510       ?_Locimp_dtor@_Locimp@locale@std@@CAXPAV123@@Z 00444510 f   libcpmtd:locale0.obj
 0001:000435c0       ?_Locinfo_ctor@_Locinfo@std@@SAXPAV12@PBD@Z 004445c0 f   libcpmtd:locale0.obj
 0001:00043640       ?_Locinfo_dtor@_Locinfo@std@@SAXPAV12@@Z 00444640 f   libcpmtd:locale0.obj
 0001:00043670       ??0?$_Yarn@D@std@@QAE@PBD@Z 00444670 f i libcpmtd:locale0.obj
 0001:000436a0       ??4?$_Yarn@D@std@@QAEAAV01@PBD@Z 004446a0 f i libcpmtd:locale0.obj
 0001:00043740       ?_Empty@?$_Yarn@D@std@@QBE_NXZ 00444740 f i libcpmtd:locale0.obj
 0001:00043760       ?_C_str@?$_Yarn@D@std@@QBEPBDXZ 00444760 f i libcpmtd:locale0.obj
 0001:00043790       ??0locale@std@@QAE@W4_Uninitialized@1@@Z 00444790 f i libcpmtd:locale0.obj
 0001:000437b0       ??1_Fac_tidy_reg_t@std@@QAE@XZ 004447b0 f i libcpmtd:locale0.obj
 0001:00043850       ??$_DebugHeapDelete@U_Fac_node@std@@@std@@YAXPAU_Fac_node@0@@Z 00444850 f i libcpmtd:locale0.obj
 0001:00043880       ??_G_Fac_node@std@@QAEPAXI@Z 00444880 f i libcpmtd:locale0.obj
 0001:000438b0       ??1_Fac_node@std@@QAE@XZ   004448b0 f i libcpmtd:locale0.obj
 0001:000438e0       ?_Xinvalid_argument@std@@YAXPBD@Z 004448e0 f   libcpmtd:xthrow.obj
 0001:00043910       ??0invalid_argument@std@@QAE@PBD@Z 00444910 f i libcpmtd:xthrow.obj
 0001:00043940       ??0logic_error@std@@QAE@PBD@Z 00444940 f i libcpmtd:xthrow.obj
 0001:00043970       ??_Glogic_error@std@@UAEPAXI@Z 00444970 f i libcpmtd:xthrow.obj
 0001:00043970       ??_Elogic_error@std@@UAEPAXI@Z 00444970 f i libcpmtd:xthrow.obj
 0001:000439a0       ??1logic_error@std@@UAE@XZ 004449a0 f i libcpmtd:xthrow.obj
 0001:000439c0       ??_Ginvalid_argument@std@@UAEPAXI@Z 004449c0 f i libcpmtd:xthrow.obj
 0001:000439c0       ??_Einvalid_argument@std@@UAEPAXI@Z 004449c0 f i libcpmtd:xthrow.obj
 0001:000439f0       ??1invalid_argument@std@@UAE@XZ 004449f0 f i libcpmtd:xthrow.obj
 0001:00043a10       ??0invalid_argument@std@@QAE@ABV01@@Z 00444a10 f i libcpmtd:xthrow.obj
 0001:00043a40       ??0logic_error@std@@QAE@ABV01@@Z 00444a40 f i libcpmtd:xthrow.obj
 0001:00043a70       ?_Xlength_error@std@@YAXPBD@Z 00444a70 f   libcpmtd:xthrow.obj
 0001:00043aa0       ??0length_error@std@@QAE@PBD@Z 00444aa0 f i libcpmtd:xthrow.obj
 0001:00043ad0       ??_Glength_error@std@@UAEPAXI@Z 00444ad0 f i libcpmtd:xthrow.obj
 0001:00043ad0       ??_Elength_error@std@@UAEPAXI@Z 00444ad0 f i libcpmtd:xthrow.obj
 0001:00043b00       ??1length_error@std@@UAE@XZ 00444b00 f i libcpmtd:xthrow.obj
 0001:00043b20       ??0length_error@std@@QAE@ABV01@@Z 00444b20 f i libcpmtd:xthrow.obj
 0001:00043b50       ?_Xout_of_range@std@@YAXPBD@Z 00444b50 f   libcpmtd:xthrow.obj
 0001:00043b80       ??0out_of_range@std@@QAE@PBD@Z 00444b80 f i libcpmtd:xthrow.obj
 0001:00043bb0       ??_Gout_of_range@std@@UAEPAXI@Z 00444bb0 f i libcpmtd:xthrow.obj
 0001:00043bb0       ??_Eout_of_range@std@@UAEPAXI@Z 00444bb0 f i libcpmtd:xthrow.obj
 0001:00043be0       ??1out_of_range@std@@UAE@XZ 00444be0 f i libcpmtd:xthrow.obj
 0001:00043c00       ??0out_of_range@std@@QAE@ABV01@@Z 00444c00 f i libcpmtd:xthrow.obj
 0001:00043c30       ?_Xoverflow_error@std@@YAXPBD@Z 00444c30 f   libcpmtd:xthrow.obj
 0001:00043c60       ??0overflow_error@std@@QAE@PBD@Z 00444c60 f i libcpmtd:xthrow.obj
 0001:00043c90       ??_Goverflow_error@std@@UAEPAXI@Z 00444c90 f i libcpmtd:xthrow.obj
 0001:00043c90       ??_Eoverflow_error@std@@UAEPAXI@Z 00444c90 f i libcpmtd:xthrow.obj
 0001:00043cc0       ??1overflow_error@std@@UAE@XZ 00444cc0 f i libcpmtd:xthrow.obj
 0001:00043ce0       ??0overflow_error@std@@QAE@ABV01@@Z 00444ce0 f i libcpmtd:xthrow.obj
 0001:00043d10       ?_Xruntime_error@std@@YAXPBD@Z 00444d10 f   libcpmtd:xthrow.obj
 0001:00043d40       __Tolower                  00444d40 f   libcpmtd:_tolower.obj
 0001:00043ec0       __Getctype                 00444ec0 f   libcpmtd:_tolower.obj
 0001:00043f50       __Toupper                  00444f50 f   libcpmtd:_toupper.obj
 0001:000440d0       ?_Atexit@@YAXP6AXXZ@Z      004450d0 f   libcpmtd:iosptrs.obj
 0001:00044110       ??1_Init_atexit@@QAE@XZ    00445110 f i libcpmtd:iosptrs.obj
 0001:00044160       __Once                     00445160 f   libcpmtd:xmtx.obj
 0001:000441c0       __Mtxinit                  004451c0 f   libcpmtd:xmtx.obj
 0001:000441e0       __Mtxdst                   004451e0 f   libcpmtd:xmtx.obj
 0001:00044200       __Mtxlock                  00445200 f   libcpmtd:xmtx.obj
 0001:00044220       __Mtxunlock                00445220 f   libcpmtd:xmtx.obj
 0001:00044232       _DecodePointer@4           00445232 f   kernel32:KERNEL32.dll
 0001:00044238       _EncodePointer@4           00445238 f   kernel32:KERNEL32.dll
 0001:0004423e       _RtlUnwind@16              0044523e f   kernel32:KERNEL32.dll
 0001:00044244       _GetModuleFileNameW@12     00445244 f   kernel32:KERNEL32.dll
 0001:0004424a       _RaiseException@16         0044524a f   kernel32:KERNEL32.dll
 0001:00044250       _GetCommandLineA@0         00445250 f   kernel32:KERNEL32.dll
 0001:00044256       _HeapSetInformation@16     00445256 f   kernel32:KERNEL32.dll
 0001:0004425c       _GetStartupInfoW@4         0044525c f   kernel32:KERNEL32.dll
 0001:00044262       _TerminateProcess@8        00445262 f   kernel32:KERNEL32.dll
 0001:00044268       _GetCurrentProcess@0       00445268 f   kernel32:KERNEL32.dll
 0001:0004426e       _UnhandledExceptionFilter@4 0044526e f   kernel32:KERNEL32.dll
 0001:00044274       _SetUnhandledExceptionFilter@4 00445274 f   kernel32:KERNEL32.dll
 0001:0004427a       _IsDebuggerPresent@0       0044527a f   kernel32:KERNEL32.dll
 0001:00044280       _WideCharToMultiByte@32    00445280 f   kernel32:KERNEL32.dll
 0001:00044286       _MultiByteToWideChar@24    00445286 f   kernel32:KERNEL32.dll
 0001:0004428c       _lstrlenA@4                0044528c f   kernel32:KERNEL32.dll
 0001:00044292       _GetProcAddress@8          00445292 f   kernel32:KERNEL32.dll
 0001:00044298       _LoadLibraryW@4            00445298 f   kernel32:KERNEL32.dll
 0001:0004429e       _WriteFile@20              0044529e f   kernel32:KERNEL32.dll
 0001:000442a4       _GetStdHandle@4            004452a4 f   kernel32:KERNEL32.dll
 0001:000442aa       _GetLocaleInfoW@16         004452aa f   kernel32:KERNEL32.dll
 0001:000442b0       _GetLastError@0            004452b0 f   kernel32:KERNEL32.dll
 0001:000442b6       _TlsAlloc@0                004452b6 f   kernel32:KERNEL32.dll
 0001:000442bc       _TlsGetValue@4             004452bc f   kernel32:KERNEL32.dll
 0001:000442c2       _TlsSetValue@8             004452c2 f   kernel32:KERNEL32.dll
 0001:000442c8       _GetCurrentThreadId@0      004452c8 f   kernel32:KERNEL32.dll
 0001:000442ce       _TlsFree@4                 004452ce f   kernel32:KERNEL32.dll
 0001:000442d4       _GetModuleHandleW@4        004452d4 f   kernel32:KERNEL32.dll
 0001:000442da       _InterlockedIncrement@4    004452da f   kernel32:KERNEL32.dll
 0001:000442e0       _SetLastError@4            004452e0 f   kernel32:KERNEL32.dll
 0001:000442e6       _InterlockedDecrement@4    004452e6 f   kernel32:KERNEL32.dll
 0001:000442ec       _GetCurrentThread@0        004452ec f   kernel32:KERNEL32.dll
 0001:000442f2       _InitializeCriticalSectionAndSpinCount@8 004452f2 f   kernel32:KERNEL32.dll
 0001:000442f8       _DeleteCriticalSection@4   004452f8 f   kernel32:KERNEL32.dll
 0001:000442fe       _EnterCriticalSection@4    004452fe f   kernel32:KERNEL32.dll
 0001:00044304       _LeaveCriticalSection@4    00445304 f   kernel32:KERNEL32.dll
 0001:0004430a       _FatalAppExitA@8           0044530a f   kernel32:KERNEL32.dll
 0001:00044310       _HeapValidate@12           00445310 f   kernel32:KERNEL32.dll
 0001:00044316       _IsBadReadPtr@8            00445316 f   kernel32:KERNEL32.dll
 0001:0004431c       _OutputDebugStringA@4      0044531c f   kernel32:KERNEL32.dll
 0001:00044322       _WriteConsoleW@20          00445322 f   kernel32:KERNEL32.dll
 0001:00044328       _GetFileType@4             00445328 f   kernel32:KERNEL32.dll
 0001:0004432e       _OutputDebugStringW@4      0044532e f   kernel32:KERNEL32.dll
 0001:00044334       _ExitProcess@4             00445334 f   kernel32:KERNEL32.dll
 0001:0004433a       _SetConsoleCtrlHandler@8   0044533a f   kernel32:KERNEL32.dll
 0001:00044340       _GetACP@0                  00445340 f   kernel32:KERNEL32.dll
 0001:00044346       _GetOEMCP@0                00445346 f   kernel32:KERNEL32.dll
 0001:0004434c       _GetCPInfo@8               0044534c f   kernel32:KERNEL32.dll
 0001:00044352       _IsValidCodePage@4         00445352 f   kernel32:KERNEL32.dll
 0001:00044358       _QueryPerformanceCounter@4 00445358 f   kernel32:KERNEL32.dll
 0001:0004435e       _GetTickCount@0            0044535e f   kernel32:KERNEL32.dll
 0001:00044364       _GetCurrentProcessId@0     00445364 f   kernel32:KERNEL32.dll
 0001:0004436a       _GetSystemTimeAsFileTime@4 0044536a f   kernel32:KERNEL32.dll
 0001:00044370       _GetModuleFileNameA@12     00445370 f   kernel32:KERNEL32.dll
 0001:00044376       _FreeEnvironmentStringsW@4 00445376 f   kernel32:KERNEL32.dll
 0001:0004437c       _GetEnvironmentStringsW@0  0044537c f   kernel32:KERNEL32.dll
 0001:00044382       _SetHandleCount@4          00445382 f   kernel32:KERNEL32.dll
 0001:00044388       _HeapCreate@12             00445388 f   kernel32:KERNEL32.dll
 0001:0004438e       _HeapDestroy@4             0044538e f   kernel32:KERNEL32.dll
 0001:00044394       _HeapFree@12               00445394 f   kernel32:KERNEL32.dll
 0001:0004439a       _HeapAlloc@12              0044539a f   kernel32:KERNEL32.dll
 0001:000443a0       _GetProcessHeap@0          004453a0 f   kernel32:KERNEL32.dll
 0001:000443a6       _VirtualQuery@12           004453a6 f   kernel32:KERNEL32.dll
 0001:000443ac       _FreeLibrary@4             004453ac f   kernel32:KERNEL32.dll
 0001:000443b2       _HeapReAlloc@16            004453b2 f   kernel32:KERNEL32.dll
 0001:000443b8       _HeapSize@12               004453b8 f   kernel32:KERNEL32.dll
 0001:000443be       _HeapQueryInformation@20   004453be f   kernel32:KERNEL32.dll
 0001:000443c4       _InterlockedExchange@8     004453c4 f   kernel32:KERNEL32.dll
 0001:000443ca       _LCMapStringW@24           004453ca f   kernel32:KERNEL32.dll
 0001:000443d0       _GetStringTypeW@16         004453d0 f   kernel32:KERNEL32.dll
 0001:000443d6       _IsProcessorFeaturePresent@4 004453d6 f   kernel32:KERNEL32.dll
 0001:000443dc       _SetFilePointer@16         004453dc f   kernel32:KERNEL32.dll
 0001:000443e2       _GetConsoleCP@0            004453e2 f   kernel32:KERNEL32.dll
 0001:000443e8       _GetConsoleMode@8          004453e8 f   kernel32:KERNEL32.dll
 0001:000443ee       _GetLocaleInfoA@16         004453ee f   kernel32:KERNEL32.dll
 0001:000443f4       _IsValidLocale@8           004453f4 f   kernel32:KERNEL32.dll
 0001:000443fa       _EnumSystemLocalesA@8      004453fa f   kernel32:KERNEL32.dll
 0001:00044400       _GetUserDefaultLCID@0      00445400 f   kernel32:KERNEL32.dll
 0001:00044406       _SetStdHandle@8            00445406 f   kernel32:KERNEL32.dll
 0001:0004440c       _CreateFileW@28            0044540c f   kernel32:KERNEL32.dll
 0001:00044412       _CloseHandle@4             00445412 f   kernel32:KERNEL32.dll
 0001:00044418       _FlushFileBuffers@4        00445418 f   kernel32:KERNEL32.dll
 0001:0004441e       _Sleep@4                   0044541e f   kernel32:KERNEL32.dll
 0001:00044424       _InitializeCriticalSection@4 00445424 f   kernel32:KERNEL32.dll
 0001:00044430       _fwrite                    00445430 f   LIBCMTD:fwrite.obj
 0001:00044540       __fwrite_nolock            00445540 f   LIBCMTD:fwrite.obj
 0001:00044910       _fputc                     00445910 f   LIBCMTD:fputc.obj
 0001:00044b70       _putc                      00445b70 f   LIBCMTD:fputc.obj
 0001:00044dd0       _ungetc                    00445dd0 f   LIBCMTD:ungetc.obj
 0001:00044ec0       __ungetc_nolock            00445ec0 f   LIBCMTD:ungetc.obj
 0001:000450e0       _fgetc                     004460e0 f   LIBCMTD:fgetc.obj
 0001:00045330       _getc                      00446330 f   LIBCMTD:fgetc.obj
 0001:00045580       __getc_nolock              00446580 f   LIBCMTD:fgetc.obj
 0001:000455e0       _fgetpos                   004465e0 f   LIBCMTD:fgetpos.obj
 0001:000456f0       __fseeki64                 004466f0 f   LIBCMTD:fseeki64.obj
 0001:00045870       __fseeki64_nolock          00446870 f   LIBCMTD:fseeki64.obj
 0001:000459b0       _fsetpos                   004469b0 f   LIBCMTD:fsetpos.obj
 0001:00045aa0       _setvbuf                   00446aa0 f   LIBCMTD:setvbuf.obj
 0001:00045d70       ??_V@YAXPAX@Z              00446d70 f   LIBCMTD:delete2.obj
 0001:00045d90       _strerror                  00446d90 f   LIBCMTD:strerror.obj
 0001:00045e40       __get_sys_err_msg          00446e40 f i LIBCMTD:strerror.obj
 0001:00045e80       _strerror_s                00446e80 f   LIBCMTD:strerror.obj
 0001:00045fa0       __isalpha_l                00446fa0 f i LIBCMTD:_ctype.obj
 0001:00046030       _isalpha                   00447030 f i LIBCMTD:_ctype.obj
 0001:00046070       __isupper_l                00447070 f i LIBCMTD:_ctype.obj
 0001:000460f0       _isupper                   004470f0 f i LIBCMTD:_ctype.obj
 0001:00046120       __islower_l                00447120 f i LIBCMTD:_ctype.obj
 0001:000461a0       _islower                   004471a0 f i LIBCMTD:_ctype.obj
 0001:000461d0       __isdigit_l                004471d0 f i LIBCMTD:_ctype.obj
 0001:00046250       _isdigit                   00447250 f i LIBCMTD:_ctype.obj
 0001:00046280       __isxdigit_l               00447280 f i LIBCMTD:_ctype.obj
 0001:00046310       _isxdigit                  00447310 f i LIBCMTD:_ctype.obj
 0001:00046350       __isspace_l                00447350 f i LIBCMTD:_ctype.obj
 0001:000463d0       _isspace                   004473d0 f i LIBCMTD:_ctype.obj
 0001:00046400       __ispunct_l                00447400 f i LIBCMTD:_ctype.obj
 0001:00046480       _ispunct                   00447480 f i LIBCMTD:_ctype.obj
 0001:000464b0       __isalnum_l                004474b0 f i LIBCMTD:_ctype.obj
 0001:00046540       _isalnum                   00447540 f i LIBCMTD:_ctype.obj
 0001:00046580       __isprint_l                00447580 f i LIBCMTD:_ctype.obj
 0001:00046610       _isprint                   00447610 f i LIBCMTD:_ctype.obj
 0001:00046650       __isgraph_l                00447650 f i LIBCMTD:_ctype.obj
 0001:000466e0       _isgraph                   004476e0 f i LIBCMTD:_ctype.obj
 0001:00046720       __iscntrl_l                00447720 f i LIBCMTD:_ctype.obj
 0001:000467a0       _iscntrl                   004477a0 f i LIBCMTD:_ctype.obj
 0001:000467d0       ___isascii                 004477d0 f i LIBCMTD:_ctype.obj
 0001:000467f0       ___toascii                 004477f0 f i LIBCMTD:_ctype.obj
 0001:00046800       __iscsymf_l                00447800 f i LIBCMTD:_ctype.obj
 0001:00046840       ___iscsymf                 00447840 f i LIBCMTD:_ctype.obj
 0001:00046880       __iscsym_l                 00447880 f i LIBCMTD:_ctype.obj
 0001:000468c0       ___iscsym                  004478c0 f i LIBCMTD:_ctype.obj
 0001:00046900       __filbuf                   00447900 f   LIBCMTD:_filbuf.obj
 0001:00046b50       __ftelli64                 00447b50 f   LIBCMTD:ftelli64.obj
 0001:00046c40       __ftelli64_nolock          00447c40 f   LIBCMTD:ftelli64.obj
 0001:000471d0       ___sys_nerr                004481d0 f   LIBCMTD:syserr.obj
 0001:000471e0       ___sys_errlist             004481e0 f   LIBCMTD:syserr.obj
 0001:000471f0       __read                     004481f0 f   LIBCMTD:read.obj
 0001:00047480       __read_nolock              00448480 f   LIBCMTD:read.obj
 0001:000483c8       _ReadFile@20               004493c8 f   kernel32:KERNEL32.dll
 0002:00000000       ___xc_a                    00460000     LIBCMTD:crt0init.obj
 0002:00000474       ___xc_z                    00460474     LIBCMTD:crt0init.obj
 0002:00000578       ___xi_a                    00460578     LIBCMTD:crt0init.obj
 0002:00000894       ___xi_z                    00460894     LIBCMTD:crt0init.obj
 0002:00000998       ___xp_a                    00460998     LIBCMTD:crt0init.obj
 0002:00000cac       ___xp_z                    00460cac     LIBCMTD:crt0init.obj
 0002:00000db0       ___xt_a                    00460db0     LIBCMTD:crt0init.obj
 0002:00000eb4       ___xt_z                    00460eb4     LIBCMTD:crt0init.obj
 0002:00000fdc       ?has_denorm@_Num_base@std@@2W4float_denorm_style@2@B 00460fdc     YunStaff.obj
 0002:00000fe0       ?has_denorm_loss@_Num_base@std@@2_NB 00460fe0     YunStaff.obj
 0002:00000fe1       ?has_infinity@_Num_base@std@@2_NB 00460fe1     YunStaff.obj
 0002:00000fe2       ?has_quiet_NaN@_Num_base@std@@2_NB 00460fe2     YunStaff.obj
 0002:00000fe3       ?has_signaling_NaN@_Num_base@std@@2_NB 00460fe3     YunStaff.obj
 0002:00000fe4       ?is_bounded@_Num_base@std@@2_NB 00460fe4     YunStaff.obj
 0002:00000fe5       ?is_exact@_Num_base@std@@2_NB 00460fe5     YunStaff.obj
 0002:00000fe6       ?is_iec559@_Num_base@std@@2_NB 00460fe6     YunStaff.obj
 0002:00000fe7       ?is_integer@_Num_base@std@@2_NB 00460fe7     YunStaff.obj
 0002:00000fe8       ?is_modulo@_Num_base@std@@2_NB 00460fe8     YunStaff.obj
 0002:00000fe9       ?is_signed@_Num_base@std@@2_NB 00460fe9     YunStaff.obj
 0002:00000fea       ?is_specialized@_Num_base@std@@2_NB 00460fea     YunStaff.obj
 0002:00000feb       ?tinyness_before@_Num_base@std@@2_NB 00460feb     YunStaff.obj
 0002:00000fec       ?traps@_Num_base@std@@2_NB 00460fec     YunStaff.obj
 0002:00000ff0       ?round_style@_Num_base@std@@2W4float_round_style@2@B 00460ff0     YunStaff.obj
 0002:00000ff4       ?digits@_Num_base@std@@2HB 00460ff4     YunStaff.obj
 0002:00000ff8       ?digits10@_Num_base@std@@2HB 00460ff8     YunStaff.obj
 0002:00000ffc       ?max_digits10@_Num_base@std@@2HB 00460ffc     YunStaff.obj
 0002:00001000       ?max_exponent@_Num_base@std@@2HB 00461000     YunStaff.obj
 0002:00001004       ?max_exponent10@_Num_base@std@@2HB 00461004     YunStaff.obj
 0002:00001008       ?min_exponent@_Num_base@std@@2HB 00461008     YunStaff.obj
 0002:0000100c       ?min_exponent10@_Num_base@std@@2HB 0046100c     YunStaff.obj
 0002:00001010       ?radix@_Num_base@std@@2HB  00461010     YunStaff.obj
 0002:00001014       ?is_bounded@_Num_int_base@std@@2_NB 00461014     YunStaff.obj
 0002:00001015       ?is_exact@_Num_int_base@std@@2_NB 00461015     YunStaff.obj
 0002:00001016       ?is_integer@_Num_int_base@std@@2_NB 00461016     YunStaff.obj
 0002:00001017       ?is_modulo@_Num_int_base@std@@2_NB 00461017     YunStaff.obj
 0002:00001018       ?is_specialized@_Num_int_base@std@@2_NB 00461018     YunStaff.obj
 0002:0000101c       ?radix@_Num_int_base@std@@2HB 0046101c     YunStaff.obj
 0002:00001020       ?has_denorm@_Num_float_base@std@@2W4float_denorm_style@2@B 00461020     YunStaff.obj
 0002:00001024       ?has_denorm_loss@_Num_float_base@std@@2_NB 00461024     YunStaff.obj
 0002:00001025       ?has_infinity@_Num_float_base@std@@2_NB 00461025     YunStaff.obj
 0002:00001026       ?has_quiet_NaN@_Num_float_base@std@@2_NB 00461026     YunStaff.obj
 0002:00001027       ?has_signaling_NaN@_Num_float_base@std@@2_NB 00461027     YunStaff.obj
 0002:00001028       ?is_bounded@_Num_float_base@std@@2_NB 00461028     YunStaff.obj
 0002:00001029       ?is_exact@_Num_float_base@std@@2_NB 00461029     YunStaff.obj
 0002:0000102a       ?is_iec559@_Num_float_base@std@@2_NB 0046102a     YunStaff.obj
 0002:0000102b       ?is_integer@_Num_float_base@std@@2_NB 0046102b     YunStaff.obj
 0002:0000102c       ?is_modulo@_Num_float_base@std@@2_NB 0046102c     YunStaff.obj
 0002:0000102d       ?is_signed@_Num_float_base@std@@2_NB 0046102d     YunStaff.obj
 0002:0000102e       ?is_specialized@_Num_float_base@std@@2_NB 0046102e     YunStaff.obj
 0002:0000102f       ?tinyness_before@_Num_float_base@std@@2_NB 0046102f     YunStaff.obj
 0002:00001030       ?traps@_Num_float_base@std@@2_NB 00461030     YunStaff.obj
 0002:00001034       ?round_style@_Num_float_base@std@@2W4float_round_style@2@B 00461034     YunStaff.obj
 0002:00001038       ?radix@_Num_float_base@std@@2HB 00461038     YunStaff.obj
 0002:0000103c       ?is_signed@?$numeric_limits@D@std@@2_NB 0046103c     YunStaff.obj
 0002:00001040       ?digits@?$numeric_limits@D@std@@2HB 00461040     YunStaff.obj
 0002:00001044       ?digits10@?$numeric_limits@D@std@@2HB 00461044     YunStaff.obj
 0002:00001048       ?max_digits10@?$numeric_limits@D@std@@2HB 00461048     YunStaff.obj
 0002:0000104c       ?is_signed@?$numeric_limits@_W@std@@2_NB 0046104c     YunStaff.obj
 0002:00001050       ?digits@?$numeric_limits@_W@std@@2HB 00461050     YunStaff.obj
 0002:00001054       ?digits10@?$numeric_limits@_W@std@@2HB 00461054     YunStaff.obj
 0002:00001058       ?max_digits10@?$numeric_limits@_W@std@@2HB 00461058     YunStaff.obj
 0002:0000105c       ?is_modulo@?$numeric_limits@_N@std@@2_NB 0046105c     YunStaff.obj
 0002:0000105d       ?is_signed@?$numeric_limits@_N@std@@2_NB 0046105d     YunStaff.obj
 0002:00001060       ?digits@?$numeric_limits@_N@std@@2HB 00461060     YunStaff.obj
 0002:00001064       ?digits10@?$numeric_limits@_N@std@@2HB 00461064     YunStaff.obj
 0002:00001068       ?max_digits10@?$numeric_limits@_N@std@@2HB 00461068     YunStaff.obj
 0002:0000106c       ?is_signed@?$numeric_limits@C@std@@2_NB 0046106c     YunStaff.obj
 0002:00001070       ?digits@?$numeric_limits@C@std@@2HB 00461070     YunStaff.obj
 0002:00001074       ?digits10@?$numeric_limits@C@std@@2HB 00461074     YunStaff.obj
 0002:00001078       ?max_digits10@?$numeric_limits@C@std@@2HB 00461078     YunStaff.obj
 0002:0000107c       ?is_signed@?$numeric_limits@E@std@@2_NB 0046107c     YunStaff.obj
 0002:00001080       ?digits@?$numeric_limits@E@std@@2HB 00461080     YunStaff.obj
 0002:00001084       ?digits10@?$numeric_limits@E@std@@2HB 00461084     YunStaff.obj
 0002:00001088       ?max_digits10@?$numeric_limits@E@std@@2HB 00461088     YunStaff.obj
 0002:0000108c       ?is_signed@?$numeric_limits@F@std@@2_NB 0046108c     YunStaff.obj
 0002:00001090       ?digits@?$numeric_limits@F@std@@2HB 00461090     YunStaff.obj
 0002:00001094       ?digits10@?$numeric_limits@F@std@@2HB 00461094     YunStaff.obj
 0002:00001098       ?max_digits10@?$numeric_limits@F@std@@2HB 00461098     YunStaff.obj
 0002:0000109c       ?is_signed@?$numeric_limits@G@std@@2_NB 0046109c     YunStaff.obj
 0002:000010a0       ?digits@?$numeric_limits@G@std@@2HB 004610a0     YunStaff.obj
 0002:000010a4       ?digits10@?$numeric_limits@G@std@@2HB 004610a4     YunStaff.obj
 0002:000010a8       ?max_digits10@?$numeric_limits@G@std@@2HB 004610a8     YunStaff.obj
 0002:000010ac       ?is_signed@?$numeric_limits@H@std@@2_NB 004610ac     YunStaff.obj
 0002:000010b0       ?digits@?$numeric_limits@H@std@@2HB 004610b0     YunStaff.obj
 0002:000010b4       ?digits10@?$numeric_limits@H@std@@2HB 004610b4     YunStaff.obj
 0002:000010b8       ?max_digits10@?$numeric_limits@H@std@@2HB 004610b8     YunStaff.obj
 0002:000010bc       ?is_signed@?$numeric_limits@I@std@@2_NB 004610bc     YunStaff.obj
 0002:000010c0       ?digits@?$numeric_limits@I@std@@2HB 004610c0     YunStaff.obj
 0002:000010c4       ?digits10@?$numeric_limits@I@std@@2HB 004610c4     YunStaff.obj
 0002:000010c8       ?max_digits10@?$numeric_limits@I@std@@2HB 004610c8     YunStaff.obj
 0002:000010cc       ?is_signed@?$numeric_limits@J@std@@2_NB 004610cc     YunStaff.obj
 0002:000010d0       ?digits@?$numeric_limits@J@std@@2HB 004610d0     YunStaff.obj
 0002:000010d4       ?digits10@?$numeric_limits@J@std@@2HB 004610d4     YunStaff.obj
 0002:000010d8       ?max_digits10@?$numeric_limits@J@std@@2HB 004610d8     YunStaff.obj
 0002:000010dc       ?is_signed@?$numeric_limits@K@std@@2_NB 004610dc     YunStaff.obj
 0002:000010e0       ?digits@?$numeric_limits@K@std@@2HB 004610e0     YunStaff.obj
 0002:000010e4       ?digits10@?$numeric_limits@K@std@@2HB 004610e4     YunStaff.obj
 0002:000010e8       ?max_digits10@?$numeric_limits@K@std@@2HB 004610e8     YunStaff.obj
 0002:000010ec       ?is_signed@?$numeric_limits@_J@std@@2_NB 004610ec     YunStaff.obj
 0002:000010f0       ?digits@?$numeric_limits@_J@std@@2HB 004610f0     YunStaff.obj
 0002:000010f4       ?digits10@?$numeric_limits@_J@std@@2HB 004610f4     YunStaff.obj
 0002:000010f8       ?max_digits10@?$numeric_limits@_J@std@@2HB 004610f8     YunStaff.obj
 0002:000010fc       ?is_signed@?$numeric_limits@_K@std@@2_NB 004610fc     YunStaff.obj
 0002:00001100       ?digits@?$numeric_limits@_K@std@@2HB 00461100     YunStaff.obj
 0002:00001104       ?digits10@?$numeric_limits@_K@std@@2HB 00461104     YunStaff.obj
 0002:00001108       ?max_digits10@?$numeric_limits@_K@std@@2HB 00461108     YunStaff.obj
 0002:0000110c       ?digits@?$numeric_limits@M@std@@2HB 0046110c     YunStaff.obj
 0002:00001110       ?digits10@?$numeric_limits@M@std@@2HB 00461110     YunStaff.obj
 0002:00001114       ?max_digits10@?$numeric_limits@M@std@@2HB 00461114     YunStaff.obj
 0002:00001118       ?max_exponent@?$numeric_limits@M@std@@2HB 00461118     YunStaff.obj
 0002:0000111c       ?max_exponent10@?$numeric_limits@M@std@@2HB 0046111c     YunStaff.obj
 0002:00001120       ?min_exponent@?$numeric_limits@M@std@@2HB 00461120     YunStaff.obj
 0002:00001124       ?min_exponent10@?$numeric_limits@M@std@@2HB 00461124     YunStaff.obj
 0002:00001128       ?digits@?$numeric_limits@N@std@@2HB 00461128     YunStaff.obj
 0002:0000112c       ?digits10@?$numeric_limits@N@std@@2HB 0046112c     YunStaff.obj
 0002:00001130       ?max_digits10@?$numeric_limits@N@std@@2HB 00461130     YunStaff.obj
 0002:00001134       ?max_exponent@?$numeric_limits@N@std@@2HB 00461134     YunStaff.obj
 0002:00001138       ?max_exponent10@?$numeric_limits@N@std@@2HB 00461138     YunStaff.obj
 0002:0000113c       ?min_exponent@?$numeric_limits@N@std@@2HB 0046113c     YunStaff.obj
 0002:00001140       ?min_exponent10@?$numeric_limits@N@std@@2HB 00461140     YunStaff.obj
 0002:00001144       ?digits@?$numeric_limits@O@std@@2HB 00461144     YunStaff.obj
 0002:00001148       ?digits10@?$numeric_limits@O@std@@2HB 00461148     YunStaff.obj
 0002:0000114c       ?max_digits10@?$numeric_limits@O@std@@2HB 0046114c     YunStaff.obj
 0002:00001150       ?max_exponent@?$numeric_limits@O@std@@2HB 00461150     YunStaff.obj
 0002:00001154       ?max_exponent10@?$numeric_limits@O@std@@2HB 00461154     YunStaff.obj
 0002:00001158       ?min_exponent@?$numeric_limits@O@std@@2HB 00461158     YunStaff.obj
 0002:0000115c       ?min_exponent10@?$numeric_limits@O@std@@2HB 0046115c     YunStaff.obj
 0002:00001160       ?value@?$integral_constant@_N$0A@@tr1@std@@2_NB 00461160     YunStaff.obj
 0002:00001161       ?value@?$integral_constant@_N$00@tr1@std@@2_NB 00461161     YunStaff.obj
 0002:00001164       ?value@?$integral_constant@I$0A@@tr1@std@@2IB 00461164     YunStaff.obj
 0002:00001168       ?_Rank@?$_Arithmetic_traits@_N@std@@2HB 00461168     YunStaff.obj
 0002:0000116c       ?_Rank@?$_Arithmetic_traits@D@std@@2HB 0046116c     YunStaff.obj
 0002:00001170       ?_Rank@?$_Arithmetic_traits@C@std@@2HB 00461170     YunStaff.obj
 0002:00001174       ?_Rank@?$_Arithmetic_traits@E@std@@2HB 00461174     YunStaff.obj
 0002:00001178       ?_Rank@?$_Arithmetic_traits@F@std@@2HB 00461178     YunStaff.obj
 0002:0000117c       ?_Rank@?$_Arithmetic_traits@G@std@@2HB 0046117c     YunStaff.obj
 0002:00001180       ?_Rank@?$_Arithmetic_traits@H@std@@2HB 00461180     YunStaff.obj
 0002:00001184       ?_Rank@?$_Arithmetic_traits@I@std@@2HB 00461184     YunStaff.obj
 0002:00001188       ?_Rank@?$_Arithmetic_traits@J@std@@2HB 00461188     YunStaff.obj
 0002:0000118c       ?_Rank@?$_Arithmetic_traits@K@std@@2HB 0046118c     YunStaff.obj
 0002:00001190       ?_Rank@?$_Arithmetic_traits@_J@std@@2HB 00461190     YunStaff.obj
 0002:00001194       ?_Rank@?$_Arithmetic_traits@_K@std@@2HB 00461194     YunStaff.obj
 0002:00001198       ?_Rank@?$_Arithmetic_traits@M@std@@2HB 00461198     YunStaff.obj
 0002:0000119c       ?_Rank@?$_Arithmetic_traits@N@std@@2HB 0046119c     YunStaff.obj
 0002:000011a0       ?_Rank@?$_Arithmetic_traits@O@std@@2HB 004611a0     YunStaff.obj
 0002:000011a4       ?collate@?$_Locbase@H@std@@2HB 004611a4     YunStaff.obj
 0002:000011a8       ?ctype@?$_Locbase@H@std@@2HB 004611a8     YunStaff.obj
 0002:000011ac       ?monetary@?$_Locbase@H@std@@2HB 004611ac     YunStaff.obj
 0002:000011b0       ?numeric@?$_Locbase@H@std@@2HB 004611b0     YunStaff.obj
 0002:000011b4       ?time@?$_Locbase@H@std@@2HB 004611b4     YunStaff.obj
 0002:000011b8       ?messages@?$_Locbase@H@std@@2HB 004611b8     YunStaff.obj
 0002:000011bc       ?all@?$_Locbase@H@std@@2HB 004611bc     YunStaff.obj
 0002:000011c0       ?none@?$_Locbase@H@std@@2HB 004611c0     YunStaff.obj
 0002:000011c4       ?table_size@?$ctype@D@std@@2IB 004611c4     YunStaff.obj
 0002:000011c8       ?skipws@?$_Iosb@H@std@@2W4_Fmtflags@12@B 004611c8     YunStaff.obj
 0002:000011cc       ?unitbuf@?$_Iosb@H@std@@2W4_Fmtflags@12@B 004611cc     YunStaff.obj
 0002:000011d0       ?uppercase@?$_Iosb@H@std@@2W4_Fmtflags@12@B 004611d0     YunStaff.obj
 0002:000011d4       ?showbase@?$_Iosb@H@std@@2W4_Fmtflags@12@B 004611d4     YunStaff.obj
 0002:000011d8       ?showpoint@?$_Iosb@H@std@@2W4_Fmtflags@12@B 004611d8     YunStaff.obj
 0002:000011dc       ?showpos@?$_Iosb@H@std@@2W4_Fmtflags@12@B 004611dc     YunStaff.obj
 0002:000011e0       ?left@?$_Iosb@H@std@@2W4_Fmtflags@12@B 004611e0     YunStaff.obj
 0002:000011e4       ?right@?$_Iosb@H@std@@2W4_Fmtflags@12@B 004611e4     YunStaff.obj
 0002:000011e8       ?internal@?$_Iosb@H@std@@2W4_Fmtflags@12@B 004611e8     YunStaff.obj
 0002:000011ec       ?dec@?$_Iosb@H@std@@2W4_Fmtflags@12@B 004611ec     YunStaff.obj
 0002:000011f0       ?oct@?$_Iosb@H@std@@2W4_Fmtflags@12@B 004611f0     YunStaff.obj
 0002:000011f4       ?hex@?$_Iosb@H@std@@2W4_Fmtflags@12@B 004611f4     YunStaff.obj
 0002:000011f8       ?scientific@?$_Iosb@H@std@@2W4_Fmtflags@12@B 004611f8     YunStaff.obj
 0002:000011fc       ?fixed@?$_Iosb@H@std@@2W4_Fmtflags@12@B 004611fc     YunStaff.obj
 0002:00001200       ?hexfloat@?$_Iosb@H@std@@2W4_Fmtflags@12@B 00461200     YunStaff.obj
 0002:00001204       ?boolalpha@?$_Iosb@H@std@@2W4_Fmtflags@12@B 00461204     YunStaff.obj
 0002:00001208       ?_Stdio@?$_Iosb@H@std@@2W4_Fmtflags@12@B 00461208     YunStaff.obj
 0002:0000120c       ?adjustfield@?$_Iosb@H@std@@2W4_Fmtflags@12@B 0046120c     YunStaff.obj
 0002:00001210       ?basefield@?$_Iosb@H@std@@2W4_Fmtflags@12@B 00461210     YunStaff.obj
 0002:00001214       ?floatfield@?$_Iosb@H@std@@2W4_Fmtflags@12@B 00461214     YunStaff.obj
 0002:00001218       ?goodbit@?$_Iosb@H@std@@2W4_Iostate@12@B 00461218     YunStaff.obj
 0002:0000121c       ?eofbit@?$_Iosb@H@std@@2W4_Iostate@12@B 0046121c     YunStaff.obj
 0002:00001220       ?failbit@?$_Iosb@H@std@@2W4_Iostate@12@B 00461220     YunStaff.obj
 0002:00001224       ?badbit@?$_Iosb@H@std@@2W4_Iostate@12@B 00461224     YunStaff.obj
 0002:00001228       ?_Hardfail@?$_Iosb@H@std@@2W4_Iostate@12@B 00461228     YunStaff.obj
 0002:0000122c       ?in@?$_Iosb@H@std@@2W4_Openmode@12@B 0046122c     YunStaff.obj
 0002:00001230       ?out@?$_Iosb@H@std@@2W4_Openmode@12@B 00461230     YunStaff.obj
 0002:00001234       ?ate@?$_Iosb@H@std@@2W4_Openmode@12@B 00461234     YunStaff.obj
 0002:00001238       ?app@?$_Iosb@H@std@@2W4_Openmode@12@B 00461238     YunStaff.obj
 0002:0000123c       ?trunc@?$_Iosb@H@std@@2W4_Openmode@12@B 0046123c     YunStaff.obj
 0002:00001240       ?_Nocreate@?$_Iosb@H@std@@2W4_Openmode@12@B 00461240     YunStaff.obj
 0002:00001244       ?_Noreplace@?$_Iosb@H@std@@2W4_Openmode@12@B 00461244     YunStaff.obj
 0002:00001248       ?binary@?$_Iosb@H@std@@2W4_Openmode@12@B 00461248     YunStaff.obj
 0002:0000124c       ?beg@?$_Iosb@H@std@@2W4_Seekdir@12@B 0046124c     YunStaff.obj
 0002:00001250       ?cur@?$_Iosb@H@std@@2W4_Seekdir@12@B 00461250     YunStaff.obj
 0002:00001254       ?end@?$_Iosb@H@std@@2W4_Seekdir@12@B 00461254     YunStaff.obj
 0002:00001280       ??_7CYunStaffFrameWnd@@6BINotifyUI@DuiLib@@@ 00461280     YunStaff.obj
 0002:0000128c       ??_7CYunStaffFrameWnd@@6BCWindowWnd@DuiLib@@@ 0046128c     YunStaff.obj
 0002:000012a8       ??_7INotifyUI@DuiLib@@6B@  004612a8     YunStaff.obj
 0002:000012b0       ??_C@_0M@DIIKKLBA@UIMainFrame?$AA@ 004612b0     YunStaff.obj
 0002:000012c0       ??_C@_04NMAJABAO@tool?$AA@ 004612c0     YunStaff.obj
 0002:000012c8       ??_C@_03GABGILGN@fix?$AA@  004612c8     YunStaff.obj
 0002:000012cc       ??_C@_07NCDIDCDG@cleanup?$AA@ 004612cc     YunStaff.obj
 0002:000012d8       ??_C@_07NBILEMKE@rubbish?$AA@ 004612d8     YunStaff.obj
 0002:000012e4       ??_C@_0O@MFCJIKAB@vulnerability?$AA@ 004612e4     YunStaff.obj
 0002:000012f4       ??_C@_07KBDNECO@plugins?$AA@ 004612f4     YunStaff.obj
 0002:00001300       ??_C@_06MBMMGILG@trojan?$AA@ 00461300     YunStaff.obj
 0002:00001308       ??_C@_07GDLGLOEH@examine?$AA@ 00461308     YunStaff.obj
 0002:00001314       ??_C@_06DOPOGBGP@switch?$AA@ 00461314     YunStaff.obj
 0002:0000131c       ??_C@_08OKIAJKBO@setfocus?$AA@ 0046131c     YunStaff.obj
 0002:00001328       ??_C@_05BGCJMGHI@click?$AA@ 00461328     YunStaff.obj
 0002:00001330       ??_C@_0L@IGMEAKIK@windowinit?$AA@ 00461330     YunStaff.obj
 0002:00001340       ??_C@_1BK@LJGNJGAD@?$AAY?$AAu?$AAn?$AAS?$AAt?$AAa?$AAf?$AAf?$AA?4?$AAc?$AAp?$AAp?$AA?$AA@ 00461340     YunStaff.obj
 0002:00001360       ??_C@_1DO@ODIKFOCA@?$AAp?$AAR?$AAo?$AAo?$AAt?$AA?5?$AA?$CG?$AA?$CG?$AA?5?$AA?$CC?$AAF?$AAa?$AAi?$AAl?$AAe?$AAd?$AA?5?$AAt?$AAo?$AA?5?$AAp?$AAa?$AAr?$AAs?$AAe?$AA?5?$AAX?$AAM?$AAL?$AA?$CC?$AA?$AA@ 00461360     YunStaff.obj
 0002:000013ac       ??_C@_0BE@NJOIAKFM@Failed?5to?5parse?5XML?$AA@ 004613ac     YunStaff.obj
 0002:000013c4       ??_C@_08CILEKKHO@skin?4xml?$AA@ 004613c4     YunStaff.obj
 0002:000013d0       ??_C@_06LIKCCDDH@minbtn?$AA@ 004613d0     YunStaff.obj
 0002:000013d8       ??_C@_0L@LHKDNLLJ@restorebtn?$AA@ 004613d8     YunStaff.obj
 0002:000013e8       ??_C@_06LLFBMDHI@maxbtn?$AA@ 004613e8     YunStaff.obj
 0002:000013f0       ??_C@_08GDGPOBLH@closebtn?$AA@ 004613f0     YunStaff.obj
 0002:000013fc       ??_C@_06ILADPHBO@TextUI?$AA@ 004613fc     YunStaff.obj
 0002:00001404       ??_C@_08IAGGEAG@OptionUI?$AA@ 00461404     YunStaff.obj
 0002:00001410       ??_C@_08OOBJMHA@ButtonUI?$AA@ 00461410     YunStaff.obj
 0002:00001420       ??_7CDialogBuilderCallbackEx@@6B@ 00461420     YunStaff.obj
 0002:0000142c       ??_7IDialogBuilderCallback@DuiLib@@6B@ 0046142c     YunStaff.obj
 0002:00001434       ??_C@_0BA@JIADPMFP@ComputerExamine?$AA@ 00461434     YunStaff.obj
 0002:00001448       ??_C@_0BE@KDHELIDL@ComputerExamine?4xml?$AA@ 00461448     YunStaff.obj
 0002:00001464       ??_7ComputerExamineUI@@6BIContainerUI@DuiLib@@@ 00461464     YunStaff.obj
 0002:00001494       ??_7ComputerExamineUI@@6BCControlUI@DuiLib@@@ 00461494     YunStaff.obj
 0002:00001694       ??_C@_0BF@OOHOMBOF@ios_base?3?3eofbit?5set?$AA@ 00461694     YunStaff.obj
 0002:000016b0       ??_C@_0BG@FMKFHCIL@ios_base?3?3failbit?5set?$AA@ 004616b0     YunStaff.obj
 0002:000016cc       ??_C@_0BF@PHHKMMFD@ios_base?3?3badbit?5set?$AA@ 004616cc     YunStaff.obj
 0002:000016ec       ??_7runtime_error@std@@6B@ 004616ec     YunStaff.obj
 0002:000016fc       ??_7failure@ios_base@std@@6B@ 004616fc     YunStaff.obj
 0002:0000170c       ??_7system_error@std@@6B@  0046170c     YunStaff.obj
 0002:0000171c       ??_7bad_alloc@std@@6B@     0046171c     LIBCMTD:new.obj
 0002:00001724       ??_C@_0P@GHFPNOJB@bad?5allocation?$AA@ 00461724     LIBCMTD:new.obj
 0002:00001738       ??_7type_info@@6B@         00461738     LIBCMTD:typinfo.obj
 0002:0000173c       ?ProcessDetach@NativeDll@<CrtImplementationDetails>@@0IB 0046173c     LIBCMTD:_trnsctrl_.obj
 0002:00001740       ?ProcessAttach@NativeDll@<CrtImplementationDetails>@@0IB 00461740     LIBCMTD:_trnsctrl_.obj
 0002:00001744       ?ThreadAttach@NativeDll@<CrtImplementationDetails>@@0IB 00461744     LIBCMTD:_trnsctrl_.obj
 0002:00001748       ?ThreadDetach@NativeDll@<CrtImplementationDetails>@@0IB 00461748     LIBCMTD:_trnsctrl_.obj
 0002:0000174c       ?ProcessVerifier@NativeDll@<CrtImplementationDetails>@@0IB 0046174c     LIBCMTD:_trnsctrl_.obj
 0002:00001750       ??_C@_17LGKOMLJ@?$AA?4?$AA?4?$AA?4?$AA?$AA@ 00461750     LIBCMTD:dbgrptw.obj
 0002:00001758       ??_C@_1CC@CGHMNGDG@?$AAA?$AAs?$AAs?$AAe?$AAr?$AAt?$AAi?$AAo?$AAn?$AA?5?$AAF?$AAa?$AAi?$AAl?$AAe?$AAd?$AA?$AA@ 00461758     LIBCMTD:dbgrptw.obj
 0002:0000177c       ??_C@_1M@ILHOPKA@?$AAE?$AAr?$AAr?$AAo?$AAr?$AA?$AA@ 0046177c     LIBCMTD:dbgrptw.obj
 0002:00001788       ??_C@_1BA@GLMCNLEM@?$AAW?$AAa?$AAr?$AAn?$AAi?$AAn?$AAg?$AA?$AA@ 00461788     LIBCMTD:dbgrptw.obj
 0002:000017a4       ??_C@_0DA@PCCBBBID@f?3?2dd?2vctools?2crt_bld?2self_x86?2c@ 004617a4     LIBCMTD:dbgrptw.obj
 0002:000017d8       ??_C@_1FI@PHIAFFHM@?$AA?$CI?$AA?$CC?$AAT?$AAh?$AAe?$AA?5?$AAh?$AAo?$AAo?$AAk?$AA?5?$AAf?$AAu?$AAn?$AAc?$AAt?$AAi?$AAo?$AAn?$AA?5?$AAi?$AAs?$AA?5?$AAn?$AAo?$AAt?$AA?5?$AAi?$AAn?$AA?5?$AAt?$AAh@ 004617d8     LIBCMTD:dbgrptw.obj
 0002:00001830       ??_C@_1CG@JBJEFOCM@?$AAp?$AAf?$AAn?$AAN?$AAe?$AAw?$AAH?$AAo?$AAo?$AAk?$AA?5?$AA?$CB?$AA?$DN?$AA?5?$AAN?$AAU?$AAL?$AAL?$AA?$AA@ 00461830     LIBCMTD:dbgrptw.obj
 0002:00001858       ??_C@_1CI@IIHEAKEI@?$AA_?$AAC?$AAr?$AAt?$AAS?$AAe?$AAt?$AAR?$AAe?$AAp?$AAo?$AAr?$AAt?$AAH?$AAo?$AAo?$AAk?$AAW?$AA2?$AA?$AA@ 00461858     LIBCMTD:dbgrptw.obj
 0002:00001880       ??_C@_1GA@IBJGKIFE@?$AAf?$AA?3?$AA?2?$AAd?$AAd?$AA?2?$AAv?$AAc?$AAt?$AAo?$AAo?$AAl?$AAs?$AA?2?$AAc?$AAr?$AAt?$AA_?$AAb?$AAl?$AAd?$AA?2?$AAs?$AAe?$AAl?$AAf?$AA_?$AAx?$AA8?$AA6?$AA?2?$AAc@ 00461880     LIBCMTD:dbgrptw.obj
 0002:000018e0       ??_C@_1HI@OFEHGPPC@?$AAm?$AAo?$AAd?$AAe?$AA?5?$AA?$DN?$AA?$DN?$AA?5?$AA_?$AAC?$AAR?$AAT?$AA_?$AAR?$AAP?$AAT?$AAH?$AAO?$AAO?$AAK?$AA_?$AAI?$AAN?$AAS?$AAT?$AAA?$AAL?$AAL?$AA?5?$AA?$HM?$AA?$HM?$AA?5@ 004618e0     LIBCMTD:dbgrptw.obj
 0002:00001958       ??_C@_1EG@PEOEAKBB@?$AAM?$AAi?$AAc?$AAr?$AAo?$AAs?$AAo?$AAf?$AAt?$AA?5?$AAV?$AAi?$AAs?$AAu?$AAa?$AAl?$AA?5?$AAC?$AA?$CL?$AA?$CL?$AA?5?$AAD?$AAe?$AAb?$AAu?$AAg?$AA?5?$AAL?$AAi?$AAb?$AAr?$AAa@ 00461958     LIBCMTD:dbgrptw.obj
 0002:000019a0       ??_C@_1FG@BBOLDHGF@?$AA_?$AAC?$AAr?$AAt?$AAD?$AAb?$AAg?$AAR?$AAe?$AAp?$AAo?$AAr?$AAt?$AA?3?$AA?5?$AAS?$AAt?$AAr?$AAi?$AAn?$AAg?$AA?5?$AAt?$AAo?$AAo?$AA?5?$AAl?$AAo?$AAn?$AAg?$AA?5?$AAo@ 004619a0     LIBCMTD:dbgrptw.obj
 0002:000019f8       ??_C@_1JI@EACPGHID@?$AAw?$AAc?$AAs?$AAc?$AAp?$AAy?$AA_?$AAs?$AA?$CI?$AAs?$AAz?$AAO?$AAu?$AAt?$AAM?$AAe?$AAs?$AAs?$AAa?$AAg?$AAe?$AA?0?$AA?5?$AA4?$AA0?$AA9?$AA6?$AA?0?$AA?5?$AAL?$AA?$CC?$AA_@ 004619f8     LIBCMTD:dbgrptw.obj
 0002:00001a90       ??_C@_1BI@KALLJECN@?$AA?$CI?$AA?$CK?$AA_?$AAe?$AAr?$AAr?$AAn?$AAo?$AA?$CI?$AA?$CJ?$AA?$CJ?$AA?$AA@ 00461a90     LIBCMTD:dbgrptw.obj
 0002:00001aa8       ??_C@_1KK@MEFMPOLM@?$AAD?$AAe?$AAb?$AAu?$AAg?$AA?5?$AA?$CF?$AAs?$AA?$CB?$AA?6?$AA?6?$AAP?$AAr?$AAo?$AAg?$AAr?$AAa?$AAm?$AA?3?$AA?5?$AA?$CF?$AAs?$AA?$CF?$AAs?$AA?$CF?$AAs?$AA?$CF?$AAs?$AA?$CF?$AAs?$AA?$CF?$AAs@ 00461aa8     LIBCMTD:dbgrptw.obj
 0002:00001b54       ??_C@_1BE@CGCJKGHI@?$AA?6?$AAM?$AAo?$AAd?$AAu?$AAl?$AAe?$AA?3?$AA?5?$AA?$AA@ 00461b54     LIBCMTD:dbgrptw.obj
 0002:00001b68       ??_C@_1BA@LNHECFIM@?$AA?6?$AAF?$AAi?$AAl?$AAe?$AA?3?$AA?5?$AA?$AA@ 00461b68     LIBCMTD:dbgrptw.obj
 0002:00001b78       ??_C@_1BA@GLLGCPCK@?$AA?6?$AAL?$AAi?$AAn?$AAe?$AA?3?$AA?5?$AA?$AA@ 00461b78     LIBCMTD:dbgrptw.obj
 0002:00001b88       ??_C@_15IABLJNFO@?$AA?6?$AA?6?$AA?$AA@ 00461b88     LIBCMTD:dbgrptw.obj
 0002:00001b90       ??_C@_1BK@PEDCIPMA@?$AAE?$AAx?$AAp?$AAr?$AAe?$AAs?$AAs?$AAi?$AAo?$AAn?$AA?3?$AA?5?$AA?$AA@ 00461b90     LIBCMTD:dbgrptw.obj
 0002:00001bac       ??_C@_11LOCGONAA@?$AA?$AA@ 00461bac     LIBCMTD:dbgrptw.obj
 0002:00001bb0       ??_C@_1OG@PMPPFHAF@?$AA?6?$AA?6?$AAF?$AAo?$AAr?$AA?5?$AAi?$AAn?$AAf?$AAo?$AAr?$AAm?$AAa?$AAt?$AAi?$AAo?$AAn?$AA?5?$AAo?$AAn?$AA?5?$AAh?$AAo?$AAw?$AA?5?$AAy?$AAo?$AAu?$AAr?$AA?5?$AAp?$AAr@ 00461bb0     LIBCMTD:dbgrptw.obj
 0002:00001c98       ??_C@_1NO@LECLLHOL@?$AAm?$AAe?$AAm?$AAc?$AAp?$AAy?$AA_?$AAs?$AA?$CI?$AAs?$AAz?$AAS?$AAh?$AAo?$AAr?$AAt?$AAP?$AAr?$AAo?$AAg?$AAN?$AAa?$AAm?$AAe?$AA?0?$AA?5?$AAs?$AAi?$AAz?$AAe?$AAo?$AAf@ 00461c98     LIBCMTD:dbgrptw.obj
 0002:00001d78       ??_C@_1CO@EAEJAADC@?$AA?$DM?$AAp?$AAr?$AAo?$AAg?$AAr?$AAa?$AAm?$AA?5?$AAn?$AAa?$AAm?$AAe?$AA?5?$AAu?$AAn?$AAk?$AAn?$AAo?$AAw?$AAn?$AA?$DO?$AA?$AA@ 00461d78     LIBCMTD:dbgrptw.obj
 0002:00001da8       ??_C@_1GI@DEDNNLCI@?$AAw?$AAc?$AAs?$AAc?$AAp?$AAy?$AA_?$AAs?$AA?$CI?$AAs?$AAz?$AAE?$AAx?$AAe?$AAN?$AAa?$AAm?$AAe?$AA?0?$AA?5?$AA2?$AA6?$AA0?$AA?0?$AA?5?$AAL?$AA?$CC?$AA?$DM?$AAp?$AAr?$AAo?$AAg@ 00461da8     LIBCMTD:dbgrptw.obj
 0002:00001e10       ??_C@_1CI@PGJIFDEK@?$AA_?$AA_?$AAc?$AAr?$AAt?$AAM?$AAe?$AAs?$AAs?$AAa?$AAg?$AAe?$AAW?$AAi?$AAn?$AAd?$AAo?$AAw?$AAW?$AA?$AA@ 00461e10     LIBCMTD:dbgrptw.obj
 0002:00001e38       ??_C@_1BG@GBJNMPFA@?$AAs?$AA2?$AA?5?$AA?$CB?$AA?$DN?$AA?5?$AAN?$AAU?$AAL?$AAL?$AA?$AA@ 00461e38     LIBCMTD:mbscmp.obj
 0002:00001e50       ??_C@_1BE@DOKJHEJA@?$AA_?$AAm?$AAb?$AAs?$AAc?$AAm?$AAp?$AA_?$AAl?$AA?$AA@ 00461e50     LIBCMTD:mbscmp.obj
 0002:00001e68       ??_C@_1GA@MHCMKGPP@?$AAf?$AA?3?$AA?2?$AAd?$AAd?$AA?2?$AAv?$AAc?$AAt?$AAo?$AAo?$AAl?$AAs?$AA?2?$AAc?$AAr?$AAt?$AA_?$AAb?$AAl?$AAd?$AA?2?$AAs?$AAe?$AAl?$AAf?$AA_?$AAx?$AA8?$AA6?$AA?2?$AAc@ 00461e68     LIBCMTD:mbscmp.obj
 0002:00001ec8       ??_C@_1BG@MODEICJK@?$AAs?$AA1?$AA?5?$AA?$CB?$AA?$DN?$AA?5?$AAN?$AAU?$AAL?$AAL?$AA?$AA@ 00461ec8     LIBCMTD:mbscmp.obj
 0002:00001ee0       ??_C@_1GE@BDAODJCD@?$AAf?$AA?3?$AA?2?$AAd?$AAd?$AA?2?$AAv?$AAc?$AAt?$AAo?$AAo?$AAl?$AAs?$AA?2?$AAc?$AAr?$AAt?$AA_?$AAb?$AAl?$AAd?$AA?2?$AAs?$AAe?$AAl?$AAf?$AA_?$AAx?$AA8?$AA6?$AA?2?$AAc@ 00461ee0     LIBCMTD:dbgdel.obj
 0002:00001f48       ??_C@_1EO@LHDAJOCM@?$AA_?$AAB?$AAL?$AAO?$AAC?$AAK?$AA_?$AAT?$AAY?$AAP?$AAE?$AA_?$AAI?$AAS?$AA_?$AAV?$AAA?$AAL?$AAI?$AAD?$AA?$CI?$AAp?$AAH?$AAe?$AAa?$AAd?$AA?9?$AA?$DO?$AAn?$AAB?$AAl?$AAo@ 00461f48     LIBCMTD:dbgdel.obj
 0002:00001fbc       ??_7exception@std@@6B@     00461fbc     LIBCMTD:stdexcpt.obj
 0002:00001fc4       ??_C@_0BC@EOODALEL@Unknown?5exception?$AA@ 00461fc4     LIBCMTD:stdexcpt.obj
 0002:00001fdc       ??_7bad_cast@std@@6B@      00461fdc     LIBCMTD:stdexcpt.obj
 0002:00001fe8       ??_7bad_typeid@std@@6B@    00461fe8     LIBCMTD:stdexcpt.obj
 0002:00001ff4       ??_7__non_rtti_object@std@@6B@ 00461ff4     LIBCMTD:stdexcpt.obj
 0002:00001ffc       ??_C@_0DA@HMCPFNKN@f?3?2dd?2vctools?2crt_bld?2self_x86?2c@ 00461ffc     LIBCMTD:onexit.obj
 0002:00002030       ??_C@_1GG@CDHAPCGF@?$AAf?$AA?3?$AA?2?$AAd?$AAd?$AA?2?$AAv?$AAc?$AAt?$AAo?$AAo?$AAl?$AAs?$AA?2?$AAc?$AAr?$AAt?$AA_?$AAb?$AAl?$AAd?$AA?2?$AAs?$AAe?$AAl?$AAf?$AA_?$AAx?$AA8?$AA6?$AA?2?$AAc@ 00462030     LIBCMTD:handler.obj
 0002:00002098       ??_C@_1BC@JLLICHIC@?$AAp?$AAn?$AAh?$AA?5?$AA?$DN?$AA?$DN?$AA?5?$AA0?$AA?$AA@ 00462098     LIBCMTD:handler.obj
 0002:000020b4       ??_C@_0BO@GNIAFIKK@Unknown?5Runtime?5Check?5Error?6?$AN?$AA@ 004620b4     LIBCMTD:_error_.obj
 0002:000020d4       ??_C@_0CM@NGINOKPC@Stack?5memory?5around?5_alloca?5was?5@ 004620d4     LIBCMTD:_error_.obj
 0002:00002100       ??_C@_0DG@HKJMLLLP@A?5local?5variable?5was?5used?5before@ 00462100     LIBCMTD:_error_.obj
 0002:00002138       ??_C@_0BN@FFOINMNJ@Stack?5memory?5was?5corrupted?6?$AN?$AA@ 00462138     LIBCMTD:_error_.obj
 0002:00002158       ??_C@_0BBN@GPMLNJCF@A?5cast?5to?5a?5smaller?5data?5type?5ha@ 00462158     LIBCMTD:_error_.obj
 0002:00002278       ??_C@_0NN@NGPKDKPD@The?5value?5of?5ESP?5was?5not?5properl@ 00462278     LIBCMTD:_error_.obj
 0002:000023f4       ??_C@_0CA@IODNCDPG@Run?9Time?5Check?5Failure?5?$CD?$CFd?5?9?5?$CFs?$AA@ 004623f4     LIBCMTD:_error_.obj
 0002:00002414       ??_C@_0BE@GNBOBNCK@Unknown?5Module?5Name?$AA@ 00462414     LIBCMTD:_error_.obj
 0002:00002428       ??_C@_0BB@PFFGGCJP@Unknown?5Filename?$AA@ 00462428     LIBCMTD:_error_.obj
 0002:00002440       ??_C@_1EA@NFKNIFJP@?$AAR?$AAu?$AAn?$AA?9?$AAT?$AAi?$AAm?$AAe?$AA?5?$AAC?$AAh?$AAe?$AAc?$AAk?$AA?5?$AAF?$AAa?$AAi?$AAl?$AAu?$AAr?$AAe?$AA?5?$AA?$CD?$AA?$CF?$AAd?$AA?5?$AA?9?$AA?5?$AA?$CF?$AAs?$AA?$AA@ 00462440     LIBCMTD:_error_.obj
 0002:00002480       ??_C@_1GM@OLMCBDMB@?$AAR?$AAu?$AAn?$AAt?$AAi?$AAm?$AAe?$AA?5?$AAC?$AAh?$AAe?$AAc?$AAk?$AA?5?$AAE?$AAr?$AAr?$AAo?$AAr?$AA?4?$AA?6?$AA?$AN?$AA?5?$AAU?$AAn?$AAa?$AAb?$AAl?$AAe?$AA?5?$AAt?$AAo@ 00462480     LIBCMTD:_error_.obj
 0002:000024ec       ??_C@_0CG@IAFNJNEE@Stack?5corrupted?5near?5unknown?5var@ 004624ec     LIBCMTD:_error_.obj
 0002:00002518       ??_C@_0EJ@LJKNEOLN@Stack?5area?5around?5_alloca?5memory@ 00462518     LIBCMTD:_error_.obj
 0002:00002564       ??_C@_08KJEDNCKC@?$CFs?$CFs?$CFs?$CFs?$AA@ 00462564     LIBCMTD:_error_.obj
 0002:00002570       ??_C@_02LLMPMKNF@?$DO?5?$AA@ 00462570     LIBCMTD:_error_.obj
 0002:00002574       ??_C@_01EEMJAFIK@?6?$AA@   00462574     LIBCMTD:_error_.obj
 0002:00002578       ??_C@_0BC@KIBAILCI@?$CFs?$CFs?$CFp?$CFs?$CFld?$CFs?$CFd?$CFs?$AA@ 00462578     LIBCMTD:_error_.obj
 0002:00002590       ??_C@_0EI@CLEPFNGI@Stack?5area?5around?5_alloca?5memory@ 00462590     LIBCMTD:_error_.obj
 0002:000025d8       ??_C@_0N@MHFFIMFG@?6Address?3?50x?$AA@ 004625d8     LIBCMTD:_error_.obj
 0002:000025e8       ??_C@_07DFDJCKFN@?6Size?3?5?$AA@ 004625e8     LIBCMTD:_error_.obj
 0002:000025f0       ??_C@_0CK@DKGBICFE@?6Allocation?5number?5within?5this?5f@ 004625f0     LIBCMTD:_error_.obj
 0002:0000261c       ??_C@_08OMAHNMHJ@?6Data?3?5?$DM?$AA@ 0046261c     LIBCMTD:_error_.obj
 0002:00002628       ??_C@_09FOPFMPEJ@wsprintfA?$AA@ 00462628     LIBCMTD:_error_.obj
 0002:00002634       ??_C@_1BG@OILDLIOJ@?$AAu?$AAs?$AAe?$AAr?$AA3?$AA2?$AA?4?$AAd?$AAl?$AAl?$AA?$AA@ 00462634     LIBCMTD:_error_.obj
 0002:0000264c       ??_C@_05MKKEDADM@?$CF?42X?5?$AA@ 0046264c     LIBCMTD:_error_.obj
 0002:00002654       ??_C@_0DE@OHJBPMBP@A?5variable?5is?5being?5used?5without@ 00462654     LIBCMTD:_error_.obj
 0002:00002688       ??_C@_0BP@OGBCLIBO@Stack?5around?5_alloca?5corrupted?$AA@ 00462688     LIBCMTD:_userapi_.obj
 0002:000026a8       ??_C@_0CK@CNLNOEPB@Local?5variable?5used?5before?5initi@ 004626a8     LIBCMTD:_userapi_.obj
 0002:000026d4       ??_C@_0BI@CIGMDCBH@Stack?5memory?5corruption?$AA@ 004626d4     LIBCMTD:_userapi_.obj
 0002:000026ec       ??_C@_0CK@FEGOIOPB@Cast?5to?5smaller?5type?5causing?5los@ 004626ec     LIBCMTD:_userapi_.obj
 0002:00002718       ??_C@_0BJ@HEGAHDFO@Stack?5pointer?5corruption?$AA@ 00462718     LIBCMTD:_userapi_.obj
 0002:00002748       ??_C@_0DP@CBBAPGOP@f?3?2dd?2vctools?2crt_bld?2self_x86?2c@ 00462748     LIBCMTD:chkesp.obj
 0002:00002787       ??_C@_00CNPNBAHC@?$AA@     00462787     LIBCMTD:chkesp.obj
 0002:00002788       ??_C@_0NM@DNEDKLDF@The?5value?5of?5ESP?5was?5not?5properl@ 00462788     LIBCMTD:chkesp.obj
 0002:00002868       ??_C@_1HG@KNCBMCDD@?$AAf?$AA?3?$AA?2?$AAd?$AAd?$AA?2?$AAv?$AAc?$AAt?$AAo?$AAo?$AAl?$AAs?$AA?2?$AAc?$AAr?$AAt?$AA_?$AAb?$AAl?$AAd?$AA?2?$AAs?$AAe?$AAl?$AAf?$AA_?$AAx?$AA8?$AA6?$AA?2?$AAc@ 00462868     LIBCMTD:typname.obj
 0002:000028e0       ??_C@_1CK@GELGGBDK@?$AAp?$AAN?$AAo?$AAd?$AAe?$AA?9?$AA?$DO?$AA_?$AAN?$AAe?$AAx?$AAt?$AA?5?$AA?$CB?$AA?$DN?$AA?5?$AAN?$AAU?$AAL?$AAL?$AA?$AA@ 004628e0     LIBCMTD:typname.obj
 0002:00002910       ??_C@_1JK@NAFNEPGC@?$AAs?$AAt?$AAr?$AAc?$AAp?$AAy?$AA_?$AAs?$AA?5?$AA?$CI?$AA?$CI?$AAc?$AAh?$AAa?$AAr?$AA?5?$AA?$CK?$AA?$CJ?$AA?$CI?$AA?$CI?$AAt?$AAy?$AAp?$AAe?$AA_?$AAi?$AAn?$AAf?$AAo?$AA?5?$AA?$CK?$AA?$CJ@ 00462910     LIBCMTD:typname.obj
 0002:000029ac       ??_C@_1CM@OOICDMK@?$AAt?$AAy?$AAp?$AAe?$AA_?$AAi?$AAn?$AAf?$AAo?$AA?3?$AA?3?$AA_?$AAN?$AAa?$AAm?$AAe?$AA_?$AAb?$AAa?$AAs?$AAe?$AA?$AA@ 004629ac     LIBCMTD:typname.obj
 0002:000029d8       ??_C@_1GI@EAJKJPED@?$AAs?$AAt?$AAr?$AAc?$AAp?$AAy?$AA_?$AAs?$AA?5?$AA?$CI?$AAp?$AAT?$AAm?$AAp?$AAT?$AAy?$AAp?$AAe?$AAN?$AAa?$AAm?$AAe?$AA?0?$AA?5?$AAl?$AAe?$AAn?$AA?$CL?$AA2?$AA?0?$AA?5?$AA?$CI@ 004629d8     LIBCMTD:typname.obj
 0002:00002a40       ??_C@_1DO@OJJLFJPE@?$AAt?$AAy?$AAp?$AAe?$AA_?$AAi?$AAn?$AAf?$AAo?$AA?3?$AA?3?$AA_?$AAN?$AAa?$AAm?$AAe?$AA_?$AAb?$AAa?$AAs?$AAe?$AA_?$AAi?$AAn?$AAt?$AAe?$AAr?$AAn?$AAa?$AAl?$AA?$AA@ 00462a40     LIBCMTD:typname.obj
 0002:00002a80       ??_C@_1BO@BKOMIGKJ@?$AAr?$AAu?$AAn?$AAt?$AAi?$AAm?$AAe?$AA?5?$AAe?$AAr?$AAr?$AAo?$AAr?$AA?5?$AA?$AA@ 00462a80     LIBCMTD:crt0msg.obj
 0002:00002aa0       ??_C@_15JNBOKNOG@?$AA?$AN?$AA?6?$AA?$AA@ 00462aa0     LIBCMTD:crt0msg.obj
 0002:00002aa8       ??_C@_1BM@JBBEPPHI@?$AAT?$AAL?$AAO?$AAS?$AAS?$AA?5?$AAe?$AAr?$AAr?$AAo?$AAr?$AA?$AN?$AA?6?$AA?$AA@ 00462aa8     LIBCMTD:crt0msg.obj
 0002:00002ac4       ??_C@_1BK@KMOMNAAI@?$AAS?$AAI?$AAN?$AAG?$AA?5?$AAe?$AAr?$AAr?$AAo?$AAr?$AA?$AN?$AA?6?$AA?$AA@ 00462ac4     LIBCMTD:crt0msg.obj
 0002:00002ae0       ??_C@_1BO@BFCDCGC@?$AAD?$AAO?$AAM?$AAA?$AAI?$AAN?$AA?5?$AAe?$AAr?$AAr?$AAo?$AAr?$AA?$AN?$AA?6?$AA?$AA@ 00462ae0     LIBCMTD:crt0msg.obj
 0002:00002b00       ??_C@_1BOO@KGEDBGAJ@?$AAR?$AA6?$AA0?$AA3?$AA3?$AA?$AN?$AA?6?$AA?9?$AA?5?$AAA?$AAt?$AAt?$AAe?$AAm?$AAp?$AAt?$AA?5?$AAt?$AAo?$AA?5?$AAu?$AAs?$AAe?$AA?5?$AAM?$AAS?$AAI?$AAL?$AA?5?$AAc?$AAo?$AAd@ 00462b00     LIBCMTD:crt0msg.obj
 0002:00002cf0       ??_C@_1GG@GOPILAJP@?$AAR?$AA6?$AA0?$AA3?$AA2?$AA?$AN?$AA?6?$AA?9?$AA?5?$AAn?$AAo?$AAt?$AA?5?$AAe?$AAn?$AAo?$AAu?$AAg?$AAh?$AA?5?$AAs?$AAp?$AAa?$AAc?$AAe?$AA?5?$AAf?$AAo?$AAr?$AA?5?$AAl?$AAo@ 00462cf0     LIBCMTD:crt0msg.obj
 0002:00002d58       ??_C@_1MG@ENCOOIDF@?$AAR?$AA6?$AA0?$AA3?$AA1?$AA?$AN?$AA?6?$AA?9?$AA?5?$AAA?$AAt?$AAt?$AAe?$AAm?$AAp?$AAt?$AA?5?$AAt?$AAo?$AA?5?$AAi?$AAn?$AAi?$AAt?$AAi?$AAa?$AAl?$AAi?$AAz?$AAe?$AA?5?$AAt@ 00462d58     LIBCMTD:crt0msg.obj
 0002:00002e20       ??_C@_1DO@BMFCDCD@?$AAR?$AA6?$AA0?$AA3?$AA0?$AA?$AN?$AA?6?$AA?9?$AA?5?$AAC?$AAR?$AAT?$AA?5?$AAn?$AAo?$AAt?$AA?5?$AAi?$AAn?$AAi?$AAt?$AAi?$AAa?$AAl?$AAi?$AAz?$AAe?$AAd?$AA?$AN?$AA?6?$AA?$AA@ 00462e20     LIBCMTD:crt0msg.obj
 0002:00002e60       ??_C@_1EK@HHFLMAOL@?$AAR?$AA6?$AA0?$AA2?$AA8?$AA?$AN?$AA?6?$AA?9?$AA?5?$AAu?$AAn?$AAa?$AAb?$AAl?$AAe?$AA?5?$AAt?$AAo?$AA?5?$AAi?$AAn?$AAi?$AAt?$AAi?$AAa?$AAl?$AAi?$AAz?$AAe?$AA?5?$AAh?$AAe@ 00462e60     LIBCMTD:crt0msg.obj
 0002:00002eb0       ??_C@_1GK@MFGOKLAG@?$AAR?$AA6?$AA0?$AA2?$AA7?$AA?$AN?$AA?6?$AA?9?$AA?5?$AAn?$AAo?$AAt?$AA?5?$AAe?$AAn?$AAo?$AAu?$AAg?$AAh?$AA?5?$AAs?$AAp?$AAa?$AAc?$AAe?$AA?5?$AAf?$AAo?$AAr?$AA?5?$AAl?$AAo@ 00462eb0     LIBCMTD:crt0msg.obj
 0002:00002f20       ??_C@_1GK@MCAAGJMO@?$AAR?$AA6?$AA0?$AA2?$AA6?$AA?$AN?$AA?6?$AA?9?$AA?5?$AAn?$AAo?$AAt?$AA?5?$AAe?$AAn?$AAo?$AAu?$AAg?$AAh?$AA?5?$AAs?$AAp?$AAa?$AAc?$AAe?$AA?5?$AAf?$AAo?$AAr?$AA?5?$AAs?$AAt@ 00462f20     LIBCMTD:crt0msg.obj
 0002:00002f90       ??_C@_1EM@MAADIHMB@?$AAR?$AA6?$AA0?$AA2?$AA5?$AA?$AN?$AA?6?$AA?9?$AA?5?$AAp?$AAu?$AAr?$AAe?$AA?5?$AAv?$AAi?$AAr?$AAt?$AAu?$AAa?$AAl?$AA?5?$AAf?$AAu?$AAn?$AAc?$AAt?$AAi?$AAo?$AAn?$AA?5?$AAc@ 00462f90     LIBCMTD:crt0msg.obj
 0002:00002fe0       ??_C@_1GK@FHCKBEFA@?$AAR?$AA6?$AA0?$AA2?$AA4?$AA?$AN?$AA?6?$AA?9?$AA?5?$AAn?$AAo?$AAt?$AA?5?$AAe?$AAn?$AAo?$AAu?$AAg?$AAh?$AA?5?$AAs?$AAp?$AAa?$AAc?$AAe?$AA?5?$AAf?$AAo?$AAr?$AA?5?$AA_?$AAo@ 00462fe0     LIBCMTD:crt0msg.obj
 0002:00003050       ??_C@_1FC@ECHBIFBC@?$AAR?$AA6?$AA0?$AA1?$AA9?$AA?$AN?$AA?6?$AA?9?$AA?5?$AAu?$AAn?$AAa?$AAb?$AAl?$AAe?$AA?5?$AAt?$AAo?$AA?5?$AAo?$AAp?$AAe?$AAn?$AA?5?$AAc?$AAo?$AAn?$AAs?$AAo?$AAl?$AAe?$AA?5@ 00463050     LIBCMTD:crt0msg.obj
 0002:000030a8       ??_C@_1EC@JIBHAOPH@?$AAR?$AA6?$AA0?$AA1?$AA8?$AA?$AN?$AA?6?$AA?9?$AA?5?$AAu?$AAn?$AAe?$AAx?$AAp?$AAe?$AAc?$AAt?$AAe?$AAd?$AA?5?$AAh?$AAe?$AAa?$AAp?$AA?5?$AAe?$AAr?$AAr?$AAo?$AAr?$AA?$AN?$AA?6@ 004630a8     LIBCMTD:crt0msg.obj
 0002:000030f0       ??_C@_1FK@BEOGODMC@?$AAR?$AA6?$AA0?$AA1?$AA7?$AA?$AN?$AA?6?$AA?9?$AA?5?$AAu?$AAn?$AAe?$AAx?$AAp?$AAe?$AAc?$AAt?$AAe?$AAd?$AA?5?$AAm?$AAu?$AAl?$AAt?$AAi?$AAt?$AAh?$AAr?$AAe?$AAa?$AAd?$AA?5@ 004630f0     LIBCMTD:crt0msg.obj
 0002:00003150       ??_C@_1FI@LOGNIKDM@?$AAR?$AA6?$AA0?$AA1?$AA6?$AA?$AN?$AA?6?$AA?9?$AA?5?$AAn?$AAo?$AAt?$AA?5?$AAe?$AAn?$AAo?$AAu?$AAg?$AAh?$AA?5?$AAs?$AAp?$AAa?$AAc?$AAe?$AA?5?$AAf?$AAo?$AAr?$AA?5?$AAt?$AAh@ 00463150     LIBCMTD:crt0msg.obj
 0002:000031a8       ??_C@_1EG@BEHAGFJD@?$AAR?$AA6?$AA0?$AA1?$AA0?$AA?$AN?$AA?6?$AA?9?$AA?5?$AAa?$AAb?$AAo?$AAr?$AAt?$AA?$CI?$AA?$CJ?$AA?5?$AAh?$AAa?$AAs?$AA?5?$AAb?$AAe?$AAe?$AAn?$AA?5?$AAc?$AAa?$AAl?$AAl?$AAe?$AAd@ 004631a8     LIBCMTD:crt0msg.obj
 0002:000031f0       ??_C@_1FI@HONFMGBI@?$AAR?$AA6?$AA0?$AA0?$AA9?$AA?$AN?$AA?6?$AA?9?$AA?5?$AAn?$AAo?$AAt?$AA?5?$AAe?$AAn?$AAo?$AAu?$AAg?$AAh?$AA?5?$AAs?$AAp?$AAa?$AAc?$AAe?$AA?5?$AAf?$AAo?$AAr?$AA?5?$AAe?$AAn@ 004631f0     LIBCMTD:crt0msg.obj
 0002:00003248       ??_C@_1FE@LLNEDJMD@?$AAR?$AA6?$AA0?$AA0?$AA8?$AA?$AN?$AA?6?$AA?9?$AA?5?$AAn?$AAo?$AAt?$AA?5?$AAe?$AAn?$AAo?$AAu?$AAg?$AAh?$AA?5?$AAs?$AAp?$AAa?$AAc?$AAe?$AA?5?$AAf?$AAo?$AAr?$AA?5?$AAa?$AAr@ 00463248     LIBCMTD:crt0msg.obj
 0002:000032a0       ??_C@_1FK@PGACCAFB@?$AAR?$AA6?$AA0?$AA0?$AA2?$AA?$AN?$AA?6?$AA?9?$AA?5?$AAf?$AAl?$AAo?$AAa?$AAt?$AAi?$AAn?$AAg?$AA?5?$AAp?$AAo?$AAi?$AAn?$AAt?$AA?5?$AAs?$AAu?$AAp?$AAp?$AAo?$AAr?$AAt?$AA?5@ 004632a0     LIBCMTD:crt0msg.obj
 0002:000033b0       ??_C@_1EK@MBDPDCGA@?$AAM?$AAi?$AAc?$AAr?$AAo?$AAs?$AAo?$AAf?$AAt?$AA?5?$AAV?$AAi?$AAs?$AAu?$AAa?$AAl?$AA?5?$AAC?$AA?$CL?$AA?$CL?$AA?5?$AAR?$AAu?$AAn?$AAt?$AAi?$AAm?$AAe?$AA?5?$AAL?$AAi?$AAb@ 004633b0     LIBCMTD:crt0msg.obj
 0002:00003400       ??_C@_1IG@NMONDPP@?$AAw?$AAc?$AAs?$AAc?$AAa?$AAt?$AA_?$AAs?$AA?$CI?$AAo?$AAu?$AAt?$AAm?$AAs?$AAg?$AA?0?$AA?5?$AA?$CI?$AAs?$AAi?$AAz?$AAe?$AAo?$AAf?$AA?$CI?$AAo?$AAu?$AAt?$AAm?$AAs?$AAg?$AA?$CJ@ 00463400     LIBCMTD:crt0msg.obj
 0002:00003488       ??_C@_1IA@DCJGKHFO@?$AAw?$AAc?$AAs?$AAc?$AAa?$AAt?$AA_?$AAs?$AA?$CI?$AAo?$AAu?$AAt?$AAm?$AAs?$AAg?$AA?0?$AA?5?$AA?$CI?$AAs?$AAi?$AAz?$AAe?$AAo?$AAf?$AA?$CI?$AAo?$AAu?$AAt?$AAm?$AAs?$AAg?$AA?$CJ@ 00463488     LIBCMTD:crt0msg.obj
 0002:00003508       ??_C@_1HI@FLHKGEBE@?$AAw?$AAc?$AAs?$AAn?$AAc?$AAp?$AAy?$AA_?$AAs?$AA?$CI?$AAp?$AAc?$AAh?$AA?0?$AA?5?$AAp?$AAr?$AAo?$AAg?$AAn?$AAa?$AAm?$AAe?$AA_?$AAs?$AAi?$AAz?$AAe?$AA?5?$AA?9?$AA?5?$AA?$CI@ 00463508     LIBCMTD:crt0msg.obj
 0002:00003580       ??_C@_1HK@FJJNAABO@?$AAw?$AAc?$AAs?$AAc?$AAp?$AAy?$AA_?$AAs?$AA?$CI?$AAp?$AAr?$AAo?$AAg?$AAn?$AAa?$AAm?$AAe?$AA?0?$AA?5?$AAp?$AAr?$AAo?$AAg?$AAn?$AAa?$AAm?$AAe?$AA_?$AAs?$AAi?$AAz?$AAe@ 00463580     LIBCMTD:crt0msg.obj
 0002:000035fc       ??_C@_1DE@JNGNBFGO@?$AAR?$AAu?$AAn?$AAt?$AAi?$AAm?$AAe?$AA?5?$AAE?$AAr?$AAr?$AAo?$AAr?$AA?$CB?$AA?6?$AA?6?$AAP?$AAr?$AAo?$AAg?$AAr?$AAa?$AAm?$AA?3?$AA?5?$AA?$AA@ 004635fc     LIBCMTD:crt0msg.obj
 0002:00003630       ??_C@_1KO@BKLCKNFL@?$AAw?$AAc?$AAs?$AAc?$AAp?$AAy?$AA_?$AAs?$AA?$CI?$AAo?$AAu?$AAt?$AAm?$AAs?$AAg?$AA?0?$AA?5?$AA?$CI?$AAs?$AAi?$AAz?$AAe?$AAo?$AAf?$AA?$CI?$AAo?$AAu?$AAt?$AAm?$AAs?$AAg?$AA?$CJ@ 00463630     LIBCMTD:crt0msg.obj
 0002:000036e0       ??_C@_1BI@EAHMBMEC@?$AA_?$AAN?$AAM?$AAS?$AAG?$AA_?$AAW?$AAR?$AAI?$AAT?$AAE?$AA?$AA@ 004636e0     LIBCMTD:crt0msg.obj
 0002:000036f8       ??_C@_1GC@HKOJBOFF@?$AAf?$AA?3?$AA?2?$AAd?$AAd?$AA?2?$AAv?$AAc?$AAt?$AAo?$AAo?$AAl?$AAs?$AA?2?$AAc?$AAr?$AAt?$AA_?$AAb?$AAl?$AAd?$AA?2?$AAs?$AAe?$AAl?$AAf?$AA_?$AAx?$AA8?$AA6?$AA?2?$AAc@ 004636f8     LIBCMTD:crt0msg.obj
 0002:00003760       ??_C@_1GO@NGIGJNHH@?$AAs?$AAt?$AAr?$AAn?$AAc?$AAp?$AAy?$AA_?$AAs?$AA?$CI?$AA?$CK?$AAs?$AAt?$AAr?$AAa?$AAd?$AAd?$AAr?$AAe?$AAs?$AAs?$AA?0?$AA?5?$AAo?$AAu?$AAt?$AAs?$AAi?$AAz?$AAe?$AA?0?$AA?5@ 00463760     LIBCMTD:inithelp.obj
 0002:000037d0       ??_C@_1CA@KHHCPEI@?$AA_?$AA_?$AAg?$AAe?$AAt?$AAl?$AAo?$AAc?$AAa?$AAl?$AAe?$AAi?$AAn?$AAf?$AAo?$AA?$AA@ 004637d0     LIBCMTD:inithelp.obj
 0002:000037f0       ??_C@_1GE@PLPIMDHG@?$AAf?$AA?3?$AA?2?$AAd?$AAd?$AA?2?$AAv?$AAc?$AAt?$AAo?$AAo?$AAl?$AAs?$AA?2?$AAc?$AAr?$AAt?$AA_?$AAb?$AAl?$AAd?$AA?2?$AAs?$AAe?$AAl?$AAf?$AA_?$AAx?$AA8?$AA6?$AA?2?$AAc@ 004637f0     LIBCMTD:inithelp.obj
 0002:00003854       ??_C@_0DC@CFDMMFIG@f?3?2dd?2vctools?2crt_bld?2self_x86?2c@ 00463854     LIBCMTD:inithelp.obj
 0002:00003888       __pDestructExceptionObject 00463888     LIBCMTD:frame.obj
 0002:0000388c       ??_C@_0O@DPKOEFFH@bad?5exception?$AA@ 0046388c     LIBCMTD:frame.obj
 0002:000038a0       ??_7bad_exception@std@@6B@ 004638a0     LIBCMTD:frame.obj
 0002:000038a8       ??_C@_0DC@LMJHGCKC@f?3?2dd?2vctools?2crt_bld?2self_x86?2c@ 004638a8     LIBCMTD:tidtable.obj
 0002:000038dc       ??_C@_07PEJMOBNF@FlsFree?$AA@ 004638dc     LIBCMTD:tidtable.obj
 0002:000038e4       ??_C@_0M@JCPCPOEF@FlsSetValue?$AA@ 004638e4     LIBCMTD:tidtable.obj
 0002:000038f0       ??_C@_0M@GDNOONDI@FlsGetValue?$AA@ 004638f0     LIBCMTD:tidtable.obj
 0002:000038fc       ??_C@_08KNHFBNJ@FlsAlloc?$AA@ 004638fc     LIBCMTD:tidtable.obj
 0002:00003908       ??_C@_1BK@DBDEIDLH@?$AAK?$AAE?$AAR?$AAN?$AAE?$AAL?$AA3?$AA2?$AA?4?$AAD?$AAL?$AAL?$AA?$AA@ 00463908     LIBCMTD:tidtable.obj
 0002:00003924       ??_C@_0CP@MKONOLCI@f?3?2dd?2vctools?2crt_bld?2self_x86?2c@ 00463924     LIBCMTD:mlock.obj
 0002:00003954       ??_C@_06PJIGMIJB@Client?$AA@ 00463954     LIBCMTD:dbgheap.obj
 0002:0000395c       ??_C@_06KMEJCCGM@Ignore?$AA@ 0046395c     LIBCMTD:dbgheap.obj
 0002:00003964       ??_C@_03OGPFLFLO@CRT?$AA@  00463964     LIBCMTD:dbgheap.obj
 0002:00003968       ??_C@_06EFAGIKOH@Normal?$AA@ 00463968     LIBCMTD:dbgheap.obj
 0002:00003970       ??_C@_04HJMOFLDF@Free?$AA@ 00463970     LIBCMTD:dbgheap.obj
 0002:0000398c       ??_C@_0DC@JEMAGEKG@Error?3?5memory?5allocation?3?5bad?5me@ 0046398c     LIBCMTD:dbgheap.obj
 0002:000039c0       ??_C@_0CF@BICKFLAF@Invalid?5allocation?5size?3?5?$CFIu?5byt@ 004639c0     LIBCMTD:dbgheap.obj
 0002:000039e8       ??_C@_02DKCKIIND@?$CFs?$AA@ 004639e8     LIBCMTD:dbgheap.obj
 0002:000039ec       ??_C@_0CB@CCLOLAHO@Client?5hook?5allocation?5failure?4?6@ 004639ec     LIBCMTD:dbgheap.obj
 0002:00003a10       ??_C@_0DF@BBEGIFEK@Client?5hook?5allocation?5failure?5a@ 00463a10     LIBCMTD:dbgheap.obj
 0002:00003a48       ??_C@_1GC@DNJKKEAA@?$AAf?$AA?3?$AA?2?$AAd?$AAd?$AA?2?$AAv?$AAc?$AAt?$AAo?$AAo?$AAl?$AAs?$AA?2?$AAc?$AAr?$AAt?$AA_?$AAb?$AAl?$AAd?$AA?2?$AAs?$AAe?$AAl?$AAf?$AA_?$AAx?$AA8?$AA6?$AA?2?$AAc@ 00463a48     LIBCMTD:dbgheap.obj
 0002:00003aac       ??_C@_1CE@LJFEPPMP@?$AA_?$AAC?$AAr?$AAt?$AAC?$AAh?$AAe?$AAc?$AAk?$AAM?$AAe?$AAm?$AAo?$AAr?$AAy?$AA?$CI?$AA?$CJ?$AA?$AA@ 00463aac     LIBCMTD:dbgheap.obj
 0002:00003ad0       ??_C@_1DE@KOOKLFBB@?$AA_?$AAp?$AAF?$AAi?$AAr?$AAs?$AAt?$AAB?$AAl?$AAo?$AAc?$AAk?$AA?5?$AA?$DN?$AA?$DN?$AA?5?$AAp?$AAO?$AAl?$AAd?$AAB?$AAl?$AAo?$AAc?$AAk?$AA?$AA@ 00463ad0     LIBCMTD:dbgheap.obj
 0002:00003b04       ??_C@_1DC@GEFKNOOL@?$AA_?$AAp?$AAL?$AAa?$AAs?$AAt?$AAB?$AAl?$AAo?$AAc?$AAk?$AA?5?$AA?$DN?$AA?$DN?$AA?5?$AAp?$AAO?$AAl?$AAd?$AAB?$AAl?$AAo?$AAc?$AAk?$AA?$AA@ 00463b04     LIBCMTD:dbgheap.obj
 0002:00003b38       ??_C@_1GE@PCKLOLAO@?$AAf?$AAR?$AAe?$AAa?$AAl?$AAl?$AAo?$AAc?$AA?5?$AA?$HM?$AA?$HM?$AA?5?$AA?$CI?$AA?$CB?$AAf?$AAR?$AAe?$AAa?$AAl?$AAl?$AAo?$AAc?$AA?5?$AA?$CG?$AA?$CG?$AA?5?$AAp?$AAN?$AAe?$AAw?$AAB?$AAl@ 00463b38     LIBCMTD:dbgheap.obj
 0002:00003b9c       ??_C@_0DA@HFBKENN@Error?3?5possible?5heap?5corruption?5@ 00463b9c     LIBCMTD:dbgheap.obj
 0002:00003bd0       ??_C@_1IK@DCPKDGNH@?$AAp?$AAO?$AAl?$AAd?$AAB?$AAl?$AAo?$AAc?$AAk?$AA?9?$AA?$DO?$AAn?$AAL?$AAi?$AAn?$AAe?$AA?5?$AA?$DN?$AA?$DN?$AA?5?$AAI?$AAG?$AAN?$AAO?$AAR?$AAE?$AA_?$AAL?$AAI?$AAN?$AAE?$AA?5@ 00463bd0     LIBCMTD:dbgheap.obj
 0002:00003c60       ??_C@_1EE@GFOPCECE@?$AA_?$AAC?$AAr?$AAt?$AAI?$AAs?$AAV?$AAa?$AAl?$AAi?$AAd?$AAH?$AAe?$AAa?$AAp?$AAP?$AAo?$AAi?$AAn?$AAt?$AAe?$AAr?$AA?$CI?$AAp?$AAU?$AAs?$AAe?$AAr?$AAD?$AAa?$AAt?$AAa@ 00463c60     LIBCMTD:dbgheap.obj
 0002:00003ca8       ??_C@_0EM@LGFLMAGJ@The?5Block?5at?50x?$CFp?5was?5allocated?5@ 00463ca8     LIBCMTD:dbgheap.obj
 0002:00003cf8       ??_C@_0FA@EFEIGJKG@Error?3?5memory?5allocation?3?5bad?5me@ 00463cf8     LIBCMTD:dbgheap.obj
 0002:00003d48       ??_C@_0ED@GPCPBAGP@Invalid?5allocation?5size?3?5?$CFIu?5byt@ 00463d48     LIBCMTD:dbgheap.obj
 0002:00003d8c       ??_C@_0CE@DOFMDOL@Client?5hook?5re?9allocation?5failur@ 00463d8c     LIBCMTD:dbgheap.obj
 0002:00003db0       ??_C@_0DI@KKJPDPGM@Client?5hook?5re?9allocation?5failur@ 00463db0     LIBCMTD:dbgheap.obj
 0002:00003de8       ??_C@_1BI@HAPNGHDP@?$AA_?$AAe?$AAx?$AAp?$AAa?$AAn?$AAd?$AA_?$AAd?$AAb?$AAg?$AA?$AA@ 00463de8     LIBCMTD:dbgheap.obj
 0002:00003e00       ??_C@_1CE@CJACEFBA@?$AAp?$AAU?$AAs?$AAe?$AAr?$AAD?$AAa?$AAt?$AAa?$AA?5?$AA?$CB?$AA?$DN?$AA?5?$AAN?$AAU?$AAL?$AAL?$AA?$AA@ 00463e00     LIBCMTD:dbgheap.obj
 0002:00003e24       ??_C@_1CM@MMAADDMD@?$AA_?$AAp?$AAF?$AAi?$AAr?$AAs?$AAt?$AAB?$AAl?$AAo?$AAc?$AAk?$AA?5?$AA?$DN?$AA?$DN?$AA?5?$AAp?$AAH?$AAe?$AAa?$AAd?$AA?$AA@ 00463e24     LIBCMTD:dbgheap.obj
 0002:00003e50       ??_C@_1CK@DMAGEMBG@?$AA_?$AAp?$AAL?$AAa?$AAs?$AAt?$AAB?$AAl?$AAo?$AAc?$AAk?$AA?5?$AA?$DN?$AA?$DN?$AA?5?$AAp?$AAH?$AAe?$AAa?$AAd?$AA?$AA@ 00463e50     LIBCMTD:dbgheap.obj
 0002:00003e7c       ??_C@_1DM@ODCJIDCP@?$AAp?$AAH?$AAe?$AAa?$AAd?$AA?9?$AA?$DO?$AAn?$AAB?$AAl?$AAo?$AAc?$AAk?$AAU?$AAs?$AAe?$AA?5?$AA?$DN?$AA?$DN?$AA?5?$AAn?$AAB?$AAl?$AAo?$AAc?$AAk?$AAU?$AAs?$AAe?$AA?$AA@ 00463e7c     LIBCMTD:dbgheap.obj
 0002:00003eb8       ??_C@_1HK@HPCBMDFG@?$AAp?$AAH?$AAe?$AAa?$AAd?$AA?9?$AA?$DO?$AAn?$AAL?$AAi?$AAn?$AAe?$AA?5?$AA?$DN?$AA?$DN?$AA?5?$AAI?$AAG?$AAN?$AAO?$AAR?$AAE?$AA_?$AAL?$AAI?$AAN?$AAE?$AA?5?$AA?$CG?$AA?$CG?$AA?5?$AAp@ 00463eb8     LIBCMTD:dbgheap.obj
 0002:00003f38       ??_C@_0IG@LEMBDCJK@HEAP?5CORRUPTION?5DETECTED?3?5after?5@ 00463f38     LIBCMTD:dbgheap.obj
 0002:00003fc0       ??_C@_0KE@MBMNHHHN@HEAP?5CORRUPTION?5DETECTED?3?5after?5@ 00463fc0     LIBCMTD:dbgheap.obj
 0002:00004068       ??_C@_0IK@PJCGLBOB@HEAP?5CORRUPTION?5DETECTED?3?5before@ 00464068     LIBCMTD:dbgheap.obj
 0002:000040f8       ??_C@_0KI@JGFOHMEB@HEAP?5CORRUPTION?5DETECTED?3?5before@ 004640f8     LIBCMTD:dbgheap.obj
 0002:000041a0       ??_C@_0BL@KEIPLFAC@Client?5hook?5free?5failure?4?6?$AA@ 004641a0     LIBCMTD:dbgheap.obj
 0002:000041c0       ??_C@_0EJ@HEIBCIMJ@The?5Block?5at?50x?$CFp?5was?5allocated?5@ 004641c0     LIBCMTD:dbgheap.obj
 0002:0000420c       ??_C@_1BG@MBKOGDLD@?$AA_?$AAm?$AAs?$AAi?$AAz?$AAe?$AA_?$AAd?$AAb?$AAg?$AA?$AA@ 0046420c     LIBCMTD:dbgheap.obj
 0002:00004224       ??_C@_0CI@JMLBEDHJ@?$CFhs?5located?5at?50x?$CFp?5is?5?$CFIu?5bytes@ 00464224     LIBCMTD:dbgheap.obj
 0002:00004250       ??_C@_0EG@DGJMPDBH@?$CFhs?5located?5at?50x?$CFp?5is?5?$CFIu?5bytes@ 00464250     LIBCMTD:dbgheap.obj
 0002:00004298       ??_C@_0IC@BBJIOOJH@HEAP?5CORRUPTION?5DETECTED?3?5on?5top@ 00464298     LIBCMTD:dbgheap.obj
 0002:00004320       ??_C@_0KA@IHNJJKPL@HEAP?5CORRUPTION?5DETECTED?3?5on?5top@ 00464320     LIBCMTD:dbgheap.obj
 0002:000043c0       ??_C@_07OHKEFPKJ@DAMAGED?$AA@ 004643c0     LIBCMTD:dbgheap.obj
 0002:000043c8       ??_C@_0CL@HNNNMKMJ@_heapchk?5fails?5with?5unknown?5retu@ 004643c8     LIBCMTD:dbgheap.obj
 0002:000043f4       ??_C@_0CC@MFFCHFHO@_heapchk?5fails?5with?5_HEAPBADPTR?4@ 004643f4     LIBCMTD:dbgheap.obj
 0002:00004418       ??_C@_0CC@MJGLGBDG@_heapchk?5fails?5with?5_HEAPBADEND?4@ 00464418     LIBCMTD:dbgheap.obj
 0002:0000443c       ??_C@_0CD@CPKEAPBD@_heapchk?5fails?5with?5_HEAPBADNODE@ 0046443c     LIBCMTD:dbgheap.obj
 0002:00004460       ??_C@_0CE@MKKHMBMK@_heapchk?5fails?5with?5_HEAPBADBEGI@ 00464460     LIBCMTD:dbgheap.obj
 0002:00004484       ??_C@_1BO@GJFDNMNF@?$AA_?$AAC?$AAr?$AAt?$AAS?$AAe?$AAt?$AAD?$AAb?$AAg?$AAF?$AAl?$AAa?$AAg?$AA?$AA@ 00464484     LIBCMTD:dbgheap.obj
 0002:000044a8       ??_C@_1BHO@NNANJNF@?$AA?$CI?$AAf?$AAN?$AAe?$AAw?$AAB?$AAi?$AAt?$AAs?$AA?$DN?$AA?$DN?$AA_?$AAC?$AAR?$AAT?$AAD?$AAB?$AAG?$AA_?$AAR?$AAE?$AAP?$AAO?$AAR?$AAT?$AA_?$AAF?$AAL?$AAA?$AAG?$AA?$CJ?$AA?5@ 004644a8     LIBCMTD:dbgheap.obj
 0002:00004628       ??_C@_1DE@GJCKCKEC@?$AA_?$AAC?$AAr?$AAt?$AAD?$AAo?$AAF?$AAo?$AAr?$AAA?$AAl?$AAl?$AAC?$AAl?$AAi?$AAe?$AAn?$AAt?$AAO?$AAb?$AAj?$AAe?$AAc?$AAt?$AAs?$AA?$AA@ 00464628     LIBCMTD:dbgheap.obj
 0002:0000465c       ??_C@_1BI@CJGCEEDL@?$AAp?$AAf?$AAn?$AA?5?$AA?$CB?$AA?$DN?$AA?5?$AAN?$AAU?$AAL?$AAL?$AA?$AA@ 0046465c     LIBCMTD:dbgheap.obj
 0002:00004674       ??_C@_0CB@EAAIGELO@Bad?5memory?5block?5found?5at?50x?$CFp?4?6@ 00464674     LIBCMTD:dbgheap.obj
 0002:00004698       ??_C@_0DP@LEFMFBOD@Bad?5memory?5block?5found?5at?50x?$CFp?4?6@ 00464698     LIBCMTD:dbgheap.obj
 0002:000046d8       ??_C@_1CE@NJJKELF@?$AA_?$AAC?$AAr?$AAt?$AAM?$AAe?$AAm?$AAC?$AAh?$AAe?$AAc?$AAk?$AAp?$AAo?$AAi?$AAn?$AAt?$AA?$AA@ 004646d8     LIBCMTD:dbgheap.obj
 0002:000046fc       ??_C@_1BM@MIMANDHC@?$AAs?$AAt?$AAa?$AAt?$AAe?$AA?5?$AA?$CB?$AA?$DN?$AA?5?$AAN?$AAU?$AAL?$AAL?$AA?$AA@ 004646fc     LIBCMTD:dbgheap.obj
 0002:00004718       ??_C@_1CC@DFPEDFBP@?$AAn?$AAe?$AAw?$AAS?$AAt?$AAa?$AAt?$AAe?$AA?5?$AA?$CB?$AA?$DN?$AA?5?$AAN?$AAU?$AAL?$AAL?$AA?$AA@ 00464718     LIBCMTD:dbgheap.obj
 0002:0000473c       ??_C@_1CC@DHPFEMMN@?$AAo?$AAl?$AAd?$AAS?$AAt?$AAa?$AAt?$AAe?$AA?5?$AA?$CB?$AA?$DN?$AA?5?$AAN?$AAU?$AAL?$AAL?$AA?$AA@ 0046473c     LIBCMTD:dbgheap.obj
 0002:00004760       ??_C@_1CE@PDIENACM@?$AA_?$AAC?$AAr?$AAt?$AAM?$AAe?$AAm?$AAD?$AAi?$AAf?$AAf?$AAe?$AAr?$AAe?$AAn?$AAc?$AAe?$AA?$AA@ 00464760     LIBCMTD:dbgheap.obj
 0002:00004784       ??_C@_0BH@GFGKJDCO@Object?5dump?5complete?4?6?$AA@ 00464784     LIBCMTD:dbgheap.obj
 0002:0000479c       ??_C@_0DA@MDLBNIBM@crt?5block?5at?50x?$CFp?0?5subtype?5?$CFx?0?5?$CF@ 0046479c     LIBCMTD:dbgheap.obj
 0002:000047cc       ??_C@_0CH@FAGDDGPN@normal?5block?5at?50x?$CFp?0?5?$CFIu?5bytes?5@ 004647cc     LIBCMTD:dbgheap.obj
 0002:000047f4       ??_C@_0DD@GHNAAKBB@client?5block?5at?50x?$CFp?0?5subtype?5?$CFx@ 004647f4     LIBCMTD:dbgheap.obj
 0002:00004828       ??_C@_06PKLGBFGM@?$HL?$CFld?$HN?5?$AA@ 00464828     LIBCMTD:dbgheap.obj
 0002:00004830       ??_C@_0L@JMEFFCCJ@?$CFhs?$CI?$CFd?$CJ?5?3?5?$AA@ 00464830     LIBCMTD:dbgheap.obj
 0002:0000483c       ??_C@_0BE@OIEFNFL@?$CDFile?5Error?$CD?$CI?$CFd?$CJ?5?3?5?$AA@ 0046483c     LIBCMTD:dbgheap.obj
 0002:00004850       ??_C@_0BE@KCIPKCIA@Dumping?5objects?5?9?$DO?6?$AA@ 00464850     LIBCMTD:dbgheap.obj
 0002:00004864       ??_C@_0BA@HJBKCELP@?5Data?3?5?$DM?$CFs?$DO?5?$CFs?6?$AA@ 00464864     LIBCMTD:dbgheap.obj
 0002:00004874       ??_C@_1CG@LPFIACGM@?$AA_?$AAp?$AAr?$AAi?$AAn?$AAt?$AAM?$AAe?$AAm?$AAB?$AAl?$AAo?$AAc?$AAk?$AAD?$AAa?$AAt?$AAa?$AA?$AA@ 00464874     LIBCMTD:dbgheap.obj
 0002:0000489c       ??_C@_0BI@JBFPOEJA@Detected?5memory?5leaks?$CB?6?$AA@ 0046489c     LIBCMTD:dbgheap.obj
 0002:000048b4       ??_C@_0BP@DEDHGGGI@Total?5allocations?3?5?$CFId?5bytes?4?6?$AA@ 004648b4     LIBCMTD:dbgheap.obj
 0002:000048d4       ??_C@_0CB@BLHDAFNE@Largest?5number?5used?3?5?$CFId?5bytes?4?6@ 004648d4     LIBCMTD:dbgheap.obj
 0002:000048f8       ??_C@_0BO@DACNIABB@?$CFId?5bytes?5in?5?$CFId?5?$CFhs?5Blocks?4?6?$AA@ 004648f8     LIBCMTD:dbgheap.obj
 0002:00004918       ??_C@_1CM@MPNIBKGK@?$AA_?$AAC?$AAr?$AAt?$AAM?$AAe?$AAm?$AAD?$AAu?$AAm?$AAp?$AAS?$AAt?$AAa?$AAt?$AAi?$AAs?$AAt?$AAi?$AAc?$AAs?$AA?$AA@ 00464918     LIBCMTD:dbgheap.obj
 0002:00004944       ??_C@_1DK@LFLKFPDA@?$AAo?$AAf?$AAf?$AAs?$AAe?$AAt?$AA?5?$AA?$DN?$AA?$DN?$AA?5?$AA0?$AA?5?$AA?$HM?$AA?$HM?$AA?5?$AAo?$AAf?$AAf?$AAs?$AAe?$AAt?$AA?5?$AA?$DM?$AA?5?$AAs?$AAi?$AAz?$AAe?$AA?$AA@ 00464944     LIBCMTD:dbgheap.obj
 0002:00004980       ??_C@_1DG@DONCJBBJ@?$AA_?$AAa?$AAl?$AAi?$AAg?$AAn?$AAe?$AAd?$AA_?$AAo?$AAf?$AAf?$AAs?$AAe?$AAt?$AA_?$AAm?$AAa?$AAl?$AAl?$AAo?$AAc?$AA_?$AAd?$AAb?$AAg?$AA?$AA@ 00464980     LIBCMTD:dbgheap.obj
 0002:000049b8       ??_C@_1CE@NPMGPNNP@?$AAI?$AAS?$AA_?$AA2?$AA_?$AAP?$AAO?$AAW?$AA_?$AAN?$AA?$CI?$AAa?$AAl?$AAi?$AAg?$AAn?$AA?$CJ?$AA?$AA@ 004649b8     LIBCMTD:dbgheap.obj
 0002:000049dc       ??_C@_1DI@NINIKFFK@?$AA_?$AAa?$AAl?$AAi?$AAg?$AAn?$AAe?$AAd?$AA_?$AAo?$AAf?$AAf?$AAs?$AAe?$AAt?$AA_?$AAr?$AAe?$AAa?$AAl?$AAl?$AAo?$AAc?$AA_?$AAd?$AAb?$AAg?$AA?$AA@ 004649dc     LIBCMTD:dbgheap.obj
 0002:00004a14       ??_C@_0DL@PGHMMKNE@Damage?5before?50x?$CFp?5which?5was?5all@ 00464a14     LIBCMTD:dbgheap.obj
 0002:00004a50       ??_C@_0EI@NDNJMAJK@The?5block?5at?50x?$CFp?5was?5not?5alloca@ 00464a50     LIBCMTD:dbgheap.obj
 0002:00004a98       ??_C@_0EF@PGELACII@The?5block?5at?50x?$CFp?5was?5not?5alloca@ 00464a98     LIBCMTD:dbgheap.obj
 0002:00004ae0       ??_C@_1CG@CEGMHIMN@?$AA_?$AAa?$AAl?$AAi?$AAg?$AAn?$AAe?$AAd?$AA_?$AAm?$AAs?$AAi?$AAz?$AAe?$AA_?$AAd?$AAb?$AAg?$AA?$AA@ 00464ae0     LIBCMTD:dbgheap.obj
 0002:00004b08       ??_C@_1CC@MOBIKHH@?$AAm?$AAe?$AAm?$AAb?$AAl?$AAo?$AAc?$AAk?$AA?5?$AA?$CB?$AA?$DN?$AA?5?$AAN?$AAU?$AAL?$AAL?$AA?$AA@ 00464b08     LIBCMTD:dbgheap.obj
 0002:00004b30       ??_C@_1NK@LOFHIHFC@?$AAf?$AAM?$AAo?$AAd?$AAe?$AA?5?$AA?$DN?$AA?$DN?$AA?5?$AA_?$AAC?$AAR?$AAT?$AAD?$AAB?$AAG?$AA_?$AAR?$AAE?$AAP?$AAO?$AAR?$AAT?$AA_?$AAM?$AAO?$AAD?$AAE?$AA?5?$AA?$HM?$AA?$HM?$AA?5@ 00464b30     LIBCMTD:dbgrptt.obj
 0002:00004c0c       ??_C@_1CE@FIHIECNJ@?$AA_?$AAC?$AAr?$AAt?$AAS?$AAe?$AAt?$AAR?$AAe?$AAp?$AAo?$AAr?$AAt?$AAM?$AAo?$AAd?$AAe?$AA?$AA@ 00464c0c     LIBCMTD:dbgrptt.obj
 0002:00004c30       ??_C@_1GC@FIGJJMEN@?$AAf?$AA?3?$AA?2?$AAd?$AAd?$AA?2?$AAv?$AAc?$AAt?$AAo?$AAo?$AAl?$AAs?$AA?2?$AAc?$AAr?$AAt?$AA_?$AAb?$AAl?$AAd?$AA?2?$AAs?$AAe?$AAl?$AAf?$AA_?$AAx?$AA8?$AA6?$AA?2?$AAc@ 00464c30     LIBCMTD:dbgrptt.obj
 0002:00004c98       ??_C@_1FA@IFFFOLDJ@?$AAn?$AAR?$AAp?$AAt?$AAT?$AAy?$AAp?$AAe?$AA?5?$AA?$DO?$AA?$DN?$AA?5?$AA0?$AA?5?$AA?$CG?$AA?$CG?$AA?5?$AAn?$AAR?$AAp?$AAt?$AAT?$AAy?$AAp?$AAe?$AA?5?$AA?$DM?$AA?5?$AA_?$AAC?$AAR?$AAT@ 00464c98     LIBCMTD:dbgrptt.obj
 0002:00004ce8       ??_C@_1CE@IKKEDCME@?$AA_?$AAC?$AAr?$AAt?$AAS?$AAe?$AAt?$AAR?$AAe?$AAp?$AAo?$AAr?$AAt?$AAF?$AAi?$AAl?$AAe?$AA?$AA@ 00464ce8     LIBCMTD:dbgrptt.obj
 0002:00004d10       ??_C@_1HO@PJOFIKFE@?$AA_?$AAC?$AAr?$AAt?$AAD?$AAb?$AAg?$AAR?$AAe?$AAp?$AAo?$AAr?$AAt?$AA?3?$AA?5?$AAS?$AAt?$AAr?$AAi?$AAn?$AAg?$AA?5?$AAt?$AAo?$AAo?$AA?5?$AAl?$AAo?$AAn?$AAg?$AA?5?$AAo@ 00464d10     LIBCMTD:dbgrptt.obj
 0002:00004d90       ??_C@_1MC@IGEECMDB@?$AAw?$AAc?$AAs?$AAc?$AAp?$AAy?$AA_?$AAs?$AA?$CI?$AAs?$AAz?$AAO?$AAu?$AAt?$AAM?$AAe?$AAs?$AAs?$AAa?$AAg?$AAe?$AA2?$AA?0?$AA?5?$AA4?$AA0?$AA9?$AA6?$AA?0?$AA?5?$AAL?$AA?$CC@ 00464d90     LIBCMTD:dbgrptt.obj
 0002:00004e58       ??_C@_1IM@OOKIFKOH@?$AAe?$AA?5?$AA?$DN?$AA?5?$AAm?$AAb?$AAs?$AAt?$AAo?$AAw?$AAc?$AAs?$AA_?$AAs?$AA?$CI?$AA?$CG?$AAr?$AAe?$AAt?$AA?0?$AA?5?$AAs?$AAz?$AAO?$AAu?$AAt?$AAM?$AAe?$AAs?$AAs?$AAa?$AAg@ 00464e58     LIBCMTD:dbgrptt.obj
 0002:00004ee8       ??_C@_1FI@IBIOIHEG@?$AAs?$AAt?$AAr?$AAc?$AAp?$AAy?$AA_?$AAs?$AA?$CI?$AAs?$AAz?$AAO?$AAu?$AAt?$AAM?$AAe?$AAs?$AAs?$AAa?$AAg?$AAe?$AA?0?$AA?5?$AA4?$AA0?$AA9?$AA6?$AA?0?$AA?5?$AAs?$AAz?$AAL@ 00464ee8     LIBCMTD:dbgrptt.obj
 0002:00004f40       ??_C@_1JG@CPKCIOEE@?$AAs?$AAt?$AAr?$AAc?$AAp?$AAy?$AA_?$AAs?$AA?$CI?$AAs?$AAz?$AAO?$AAu?$AAt?$AAM?$AAe?$AAs?$AAs?$AAa?$AAg?$AAe?$AA?0?$AA?5?$AA4?$AA0?$AA9?$AA6?$AA?0?$AA?5?$AA?$CC?$AA_?$AAC@ 00464f40     LIBCMTD:dbgrptt.obj
 0002:00004fd8       ??_C@_0M@IPILFDFN@?$CFs?$CI?$CFd?$CJ?5?3?5?$CFs?$AA@ 00464fd8     LIBCMTD:dbgrptt.obj
 0002:00004fe8       ??_C@_1EI@LDHJEDO@?$AAs?$AAt?$AAr?$AAc?$AAa?$AAt?$AA_?$AAs?$AA?$CI?$AAs?$AAz?$AAL?$AAi?$AAn?$AAe?$AAM?$AAe?$AAs?$AAs?$AAa?$AAg?$AAe?$AA?0?$AA?5?$AA4?$AA0?$AA9?$AA6?$AA?0?$AA?5?$AA?$CC?$AA?2@ 00464fe8     LIBCMTD:dbgrptt.obj
 0002:00005030       ??_C@_01LIIJDEN@?$AN?$AA@  00465030     LIBCMTD:dbgrptt.obj
 0002:00005038       ??_C@_1EI@CACDLAFK@?$AAs?$AAt?$AAr?$AAc?$AAa?$AAt?$AA_?$AAs?$AA?$CI?$AAs?$AAz?$AAL?$AAi?$AAn?$AAe?$AAM?$AAe?$AAs?$AAs?$AAa?$AAg?$AAe?$AA?0?$AA?5?$AA4?$AA0?$AA9?$AA6?$AA?0?$AA?5?$AA?$CC?$AA?2@ 00465038     LIBCMTD:dbgrptt.obj
 0002:00005080       ??_C@_1FK@NPGBPOFO@?$AAs?$AAt?$AAr?$AAc?$AAa?$AAt?$AA_?$AAs?$AA?$CI?$AAs?$AAz?$AAL?$AAi?$AAn?$AAe?$AAM?$AAe?$AAs?$AAs?$AAa?$AAg?$AAe?$AA?0?$AA?5?$AA4?$AA0?$AA9?$AA6?$AA?0?$AA?5?$AAs?$AAz@ 00465080     LIBCMTD:dbgrptt.obj
 0002:000050e0       ??_C@_1KK@GIGAEDMO@?$AAs?$AAt?$AAr?$AAc?$AAp?$AAy?$AA_?$AAs?$AA?$CI?$AAs?$AAz?$AAL?$AAi?$AAn?$AAe?$AAM?$AAe?$AAs?$AAs?$AAa?$AAg?$AAe?$AA?0?$AA?5?$AA4?$AA0?$AA9?$AA6?$AA?0?$AA?5?$AAs?$AAz@ 004650e0     LIBCMTD:dbgrptt.obj
 0002:0000518c       ??_C@_0BC@LAIDCHCH@Assertion?5failed?$CB?$AA@ 0046518c     LIBCMTD:dbgrptt.obj
 0002:000051a0       ??_C@_0BD@CAENFOHP@Assertion?5failed?3?5?$AA@ 004651a0     LIBCMTD:dbgrptt.obj
 0002:000051b4       ??_C@_0CL@EACFGMNB@_CrtDbgReport?3?5String?5too?5long?5o@ 004651b4     LIBCMTD:dbgrptt.obj
 0002:000051e0       ??_C@_1JI@GAALPGBM@?$AAs?$AAt?$AAr?$AAc?$AAp?$AAy?$AA_?$AAs?$AA?$CI?$AAs?$AAz?$AAU?$AAs?$AAe?$AAr?$AAM?$AAe?$AAs?$AAs?$AAa?$AAg?$AAe?$AA?0?$AA?5?$AA4?$AA0?$AA9?$AA6?$AA?0?$AA?5?$AA?$CC?$AA_@ 004651e0     LIBCMTD:dbgrptt.obj
 0002:00005278       ??_C@_07BHGABMGB@?0?5Line?5?$AA@ 00465278     LIBCMTD:dbgrptt.obj
 0002:00005280       ??_C@_0P@DFJNDPOP@?$DMfile?5unknown?$DO?$AA@ 00465280     LIBCMTD:dbgrptt.obj
 0002:00005290       ??_C@_0CG@BNGLOCEO@Second?5Chance?5Assertion?5Failed?3?5@ 00465290     LIBCMTD:dbgrptt.obj
 0002:000052b8       ??_C@_1FA@JPHJBHEM@?$AA_?$AAi?$AAt?$AAo?$AAa?$AA_?$AAs?$AA?$CI?$AAn?$AAL?$AAi?$AAn?$AAe?$AA?0?$AA?5?$AAs?$AAz?$AAL?$AAi?$AAn?$AAe?$AAM?$AAe?$AAs?$AAs?$AAa?$AAg?$AAe?$AA?0?$AA?5?$AA4?$AA0@ 004652b8     LIBCMTD:dbgrptt.obj
 0002:00005308       ??_C@_1CA@KHJHLKA@?$AA_?$AAV?$AAC?$AAr?$AAt?$AAD?$AAb?$AAg?$AAR?$AAe?$AAp?$AAo?$AAr?$AAt?$AAA?$AA?$AA@ 00465308     LIBCMTD:dbgrptt.obj
 0002:00005328       ??_C@_1IE@CPGKIAGP@?$AAw?$AAc?$AAs?$AAt?$AAo?$AAm?$AAb?$AAs?$AA_?$AAs?$AA?$CI?$AA?$CG?$AAr?$AAe?$AAt?$AA?0?$AA?5?$AAs?$AAz?$AAa?$AAO?$AAu?$AAt?$AAM?$AAe?$AAs?$AAs?$AAa?$AAg?$AAe?$AA?0?$AA?5@ 00465328     LIBCMTD:dbgrptt.obj
 0002:000053ac       ??_C@_0DP@GNPEPHJD@_CrtDbgReport?3?5String?5too?5long?5o@ 004653ac     LIBCMTD:dbgrptt.obj
 0002:000053f0       ??_C@_1MA@LBAMNNOB@?$AAs?$AAt?$AAr?$AAc?$AAp?$AAy?$AA_?$AAs?$AA?$CI?$AAs?$AAz?$AAO?$AAu?$AAt?$AAM?$AAe?$AAs?$AAs?$AAa?$AAg?$AAe?$AA2?$AA?0?$AA?5?$AA4?$AA0?$AA9?$AA6?$AA?0?$AA?5?$AA?$CC?$AA_@ 004653f0     LIBCMTD:dbgrptt.obj
 0002:000054b0       ??_C@_1JC@EOAPFDLN@?$AAw?$AAc?$AAs?$AAt?$AAo?$AAm?$AAb?$AAs?$AA_?$AAs?$AA?$CI?$AA?$CI?$AA?$CI?$AAv?$AAo?$AAi?$AAd?$AA?5?$AA?$CK?$AA?$CJ?$AA0?$AA?$CJ?$AA?0?$AA?5?$AAs?$AAz?$AAO?$AAu?$AAt?$AAM?$AAe?$AAs@ 004654b0     LIBCMTD:dbgrptt.obj
 0002:00005548       ??_C@_1FI@DBAIJPJE@?$AAw?$AAc?$AAs?$AAc?$AAp?$AAy?$AA_?$AAs?$AA?$CI?$AAs?$AAz?$AAO?$AAu?$AAt?$AAM?$AAe?$AAs?$AAs?$AAa?$AAg?$AAe?$AA?0?$AA?5?$AA4?$AA0?$AA9?$AA6?$AA?0?$AA?5?$AAs?$AAz?$AAL@ 00465548     LIBCMTD:dbgrptt.obj
 0002:000055a0       ??_C@_1BI@JIDBEPIG@?$AA?$CF?$AAs?$AA?$CI?$AA?$CF?$AAd?$AA?$CJ?$AA?5?$AA?3?$AA?5?$AA?$CF?$AAs?$AA?$AA@ 004655a0     LIBCMTD:dbgrptt.obj
 0002:000055b8       ??_C@_1EK@PHCBEDKB@?$AAw?$AAc?$AAs?$AAc?$AAa?$AAt?$AA_?$AAs?$AA?$CI?$AAs?$AAz?$AAL?$AAi?$AAn?$AAe?$AAM?$AAe?$AAs?$AAs?$AAa?$AAg?$AAe?$AA?0?$AA?5?$AA4?$AA0?$AA9?$AA6?$AA?0?$AA?5?$AAL?$AA?$CC@ 004655b8     LIBCMTD:dbgrptt.obj
 0002:00005604       ??_C@_13CMNBPIDO@?$AA?$AN?$AA?$AA@ 00465604     LIBCMTD:dbgrptt.obj
 0002:00005608       ??_C@_1EK@NMDFGHMF@?$AAw?$AAc?$AAs?$AAc?$AAa?$AAt?$AA_?$AAs?$AA?$CI?$AAs?$AAz?$AAL?$AAi?$AAn?$AAe?$AAM?$AAe?$AAs?$AAs?$AAa?$AAg?$AAe?$AA?0?$AA?5?$AA4?$AA0?$AA9?$AA6?$AA?0?$AA?5?$AAL?$AA?$CC@ 00465608     LIBCMTD:dbgrptt.obj
 0002:00005658       ??_C@_1FK@HPADHBBD@?$AAw?$AAc?$AAs?$AAc?$AAa?$AAt?$AA_?$AAs?$AA?$CI?$AAs?$AAz?$AAL?$AAi?$AAn?$AAe?$AAM?$AAe?$AAs?$AAs?$AAa?$AAg?$AAe?$AA?0?$AA?5?$AA4?$AA0?$AA9?$AA6?$AA?0?$AA?5?$AAs?$AAz@ 00465658     LIBCMTD:dbgrptt.obj
 0002:000056b8       ??_C@_1KO@DGAHENCH@?$AAw?$AAc?$AAs?$AAc?$AAp?$AAy?$AA_?$AAs?$AA?$CI?$AAs?$AAz?$AAL?$AAi?$AAn?$AAe?$AAM?$AAe?$AAs?$AAs?$AAa?$AAg?$AAe?$AA?0?$AA?5?$AA4?$AA0?$AA9?$AA6?$AA?0?$AA?5?$AAs?$AAz@ 004656b8     LIBCMTD:dbgrptt.obj
 0002:00005768       ??_C@_1CE@OJBNHDMO@?$AAA?$AAs?$AAs?$AAe?$AAr?$AAt?$AAi?$AAo?$AAn?$AA?5?$AAf?$AAa?$AAi?$AAl?$AAe?$AAd?$AA?$CB?$AA?$AA@ 00465768     LIBCMTD:dbgrptt.obj
 0002:0000578c       ??_C@_1CG@FFFGGODN@?$AAA?$AAs?$AAs?$AAe?$AAr?$AAt?$AAi?$AAo?$AAn?$AA?5?$AAf?$AAa?$AAi?$AAl?$AAe?$AAd?$AA?3?$AA?5?$AA?$AA@ 0046578c     LIBCMTD:dbgrptt.obj
 0002:000057b8       ??_C@_1JK@KHFABAEO@?$AAw?$AAc?$AAs?$AAc?$AAp?$AAy?$AA_?$AAs?$AA?$CI?$AAs?$AAz?$AAU?$AAs?$AAe?$AAr?$AAM?$AAe?$AAs?$AAs?$AAa?$AAg?$AAe?$AA?0?$AA?5?$AA4?$AA0?$AA9?$AA6?$AA?0?$AA?5?$AAL?$AA?$CC@ 004657b8     LIBCMTD:dbgrptt.obj
 0002:00005854       ??_C@_13LBAGMAIH@?$AA?6?$AA?$AA@ 00465854     LIBCMTD:dbgrptt.obj
 0002:00005858       ??_C@_1BA@ELMMDCFC@?$AA?0?$AA?5?$AAL?$AAi?$AAn?$AAe?$AA?5?$AA?$AA@ 00465858     LIBCMTD:dbgrptt.obj
 0002:00005868       ??_C@_1BO@OCHMLCAG@?$AA?$DM?$AAf?$AAi?$AAl?$AAe?$AA?5?$AAu?$AAn?$AAk?$AAn?$AAo?$AAw?$AAn?$AA?$DO?$AA?$AA@ 00465868     LIBCMTD:dbgrptt.obj
 0002:00005888       ??_C@_1EM@MJFLEDMB@?$AAS?$AAe?$AAc?$AAo?$AAn?$AAd?$AA?5?$AAC?$AAh?$AAa?$AAn?$AAc?$AAe?$AA?5?$AAA?$AAs?$AAs?$AAe?$AAr?$AAt?$AAi?$AAo?$AAn?$AA?5?$AAF?$AAa?$AAi?$AAl?$AAe?$AAd?$AA?3?$AA?5@ 00465888     LIBCMTD:dbgrptt.obj
 0002:000058d8       ??_C@_1FA@CNLLOMHI@?$AA_?$AAi?$AAt?$AAo?$AAw?$AA_?$AAs?$AA?$CI?$AAn?$AAL?$AAi?$AAn?$AAe?$AA?0?$AA?5?$AAs?$AAz?$AAL?$AAi?$AAn?$AAe?$AAM?$AAe?$AAs?$AAs?$AAa?$AAg?$AAe?$AA?0?$AA?5?$AA4?$AA0@ 004658d8     LIBCMTD:dbgrptt.obj
 0002:00005928       ??_C@_1CA@HPALHDOD@?$AA_?$AAV?$AAC?$AAr?$AAt?$AAD?$AAb?$AAg?$AAR?$AAe?$AAp?$AAo?$AAr?$AAt?$AAW?$AA?$AA@ 00465928     LIBCMTD:dbgrptt.obj
 0002:00005948       ??_C@_1BG@KCMPBBDK@?$AA_?$AAg?$AAe?$AAt?$AA_?$AAe?$AAr?$AAr?$AAn?$AAo?$AA?$AA@ 00465948     LIBCMTD:dosmap.obj
 0002:00005960       ??_C@_1GA@MFGIMPNL@?$AAf?$AA?3?$AA?2?$AAd?$AAd?$AA?2?$AAv?$AAc?$AAt?$AAo?$AAo?$AAl?$AAs?$AA?2?$AAc?$AAr?$AAt?$AA_?$AAb?$AAl?$AAd?$AA?2?$AAs?$AAe?$AAl?$AAf?$AA_?$AAx?$AA8?$AA6?$AA?2?$AAc@ 00465960     LIBCMTD:dosmap.obj
 0002:000059c0       ??_C@_1BO@LKEBEKJP@?$AAp?$AAV?$AAa?$AAl?$AAu?$AAe?$AA?5?$AA?$CB?$AA?$DN?$AA?5?$AAN?$AAU?$AAL?$AAL?$AA?$AA@ 004659c0     LIBCMTD:dosmap.obj
 0002:000059e0       ??_C@_1BM@INIPHHDD@?$AA_?$AAg?$AAe?$AAt?$AA_?$AAd?$AAo?$AAs?$AAe?$AAr?$AAr?$AAn?$AAo?$AA?$AA@ 004659e0     LIBCMTD:dosmap.obj
 0002:000059fc       ??_C@_0P@MIGLKIOC@CorExitProcess?$AA@ 004659fc     LIBCMTD:crt0dat.obj
 0002:00005a0c       ??_C@_1BI@BGOHAHKC@?$AAm?$AAs?$AAc?$AAo?$AAr?$AAe?$AAe?$AA?4?$AAd?$AAl?$AAl?$AA?$AA@ 00465a0c     LIBCMTD:crt0dat.obj
 0002:00005a24       ??_C@_1CC@CDIPMFPD@?$AA_?$AAw?$AAp?$AAg?$AAm?$AAp?$AAt?$AAr?$AA?5?$AA?$CB?$AA?$DN?$AA?5?$AAN?$AAU?$AAL?$AAL?$AA?$AA@ 00465a24     LIBCMTD:crt0dat.obj
 0002:00005a48       ??_C@_1BK@PNLDCCDP@?$AA_?$AAg?$AAe?$AAt?$AA_?$AAw?$AAp?$AAg?$AAm?$AAp?$AAt?$AAr?$AA?$AA@ 00465a48     LIBCMTD:crt0dat.obj
 0002:00005a68       ??_C@_1GC@DGCPEDNJ@?$AAf?$AA?3?$AA?2?$AAd?$AAd?$AA?2?$AAv?$AAc?$AAt?$AAo?$AAo?$AAl?$AAs?$AA?2?$AAc?$AAr?$AAt?$AA_?$AAb?$AAl?$AAd?$AA?2?$AAs?$AAe?$AAl?$AAf?$AA_?$AAx?$AA8?$AA6?$AA?2?$AAc@ 00465a68     LIBCMTD:crt0dat.obj
 0002:00005acc       ??_C@_1CA@BBNAFCKO@?$AA_?$AAp?$AAg?$AAm?$AAp?$AAt?$AAr?$AA?5?$AA?$CB?$AA?$DN?$AA?5?$AAN?$AAU?$AAL?$AAL?$AA?$AA@ 00465acc     LIBCMTD:crt0dat.obj
 0002:00005aec       ??_C@_1BI@COAAPHJK@?$AA_?$AAg?$AAe?$AAt?$AA_?$AAp?$AAg?$AAm?$AAp?$AAt?$AAr?$AA?$AA@ 00465aec     LIBCMTD:crt0dat.obj
 0002:00005b04       ??_C@_1O@EJLDHPPL@?$AAs?$AAi?$AAg?$AAn?$AAa?$AAl?$AA?$AA@ 00465b04     LIBCMTD:winsig.obj
 0002:00005b18       ??_C@_1GA@DBECNFG@?$AAf?$AA?3?$AA?2?$AAd?$AAd?$AA?2?$AAv?$AAc?$AAt?$AAo?$AAo?$AAl?$AAs?$AA?2?$AAc?$AAr?$AAt?$AA_?$AAb?$AAl?$AAd?$AA?2?$AAs?$AAe?$AAl?$AAf?$AA_?$AAx?$AA8?$AA6?$AA?2?$AAc@ 00465b18     LIBCMTD:winsig.obj
 0002:00005b78       ??_C@_1DO@MLNEDKGB@?$AA?$CI?$AA?$CC?$AAI?$AAn?$AAv?$AAa?$AAl?$AAi?$AAd?$AA?5?$AAs?$AAi?$AAg?$AAn?$AAa?$AAl?$AA?5?$AAo?$AAr?$AA?5?$AAe?$AAr?$AAr?$AAo?$AAr?$AA?$CC?$AA?0?$AA?5?$AA0?$AA?$CJ?$AA?$AA@ 00465b78     LIBCMTD:winsig.obj
 0002:00005bb8       ??_C@_0DA@ELJOOIJF@f?3?2dd?2vctools?2crt_bld?2self_x86?2c@ 00465bb8     LIBCMTD:winsig.obj
 0002:00005be8       ??_C@_1M@DMJEIKHL@?$AAr?$AAa?$AAi?$AAs?$AAe?$AA?$AA@ 00465be8     LIBCMTD:winsig.obj
 0002:00005bf4       ??_C@_0BI@DFKBFLJE@GetProcessWindowStation?$AA@ 00465bf4     LIBCMTD:crtmboxw.obj
 0002:00005c0c       ??_C@_0BK@DEKFELLI@GetUserObjectInformationW?$AA@ 00465c0c     LIBCMTD:crtmboxw.obj
 0002:00005c28       ??_C@_0BD@HHGDFDBJ@GetLastActivePopup?$AA@ 00465c28     LIBCMTD:crtmboxw.obj
 0002:00005c3c       ??_C@_0BA@HNOPNCHB@GetActiveWindow?$AA@ 00465c3c     LIBCMTD:crtmboxw.obj
 0002:00005c4c       ??_C@_0M@DLDCCGNP@MessageBoxW?$AA@ 00465c4c     LIBCMTD:crtmboxw.obj
 0002:00005c58       ??_C@_1BG@GOEBHBDC@?$AAU?$AAS?$AAE?$AAR?$AA3?$AA2?$AA?4?$AAD?$AAL?$AAL?$AA?$AA@ 00465c58     LIBCMTD:crtmboxw.obj
 0002:00005c70       ??_C@_1CC@OLIJCKA@?$AA?$CI?$AAs?$AAt?$AAr?$AAi?$AAn?$AAg?$AA?5?$AA?$CB?$AA?$DN?$AA?5?$AAN?$AAU?$AAL?$AAL?$AA?$CJ?$AA?$AA@ 00465c70     LIBCMTD:swprintf.obj
 0002:00005c94       ??_C@_1BE@BMIJMLDD@?$AA_?$AAs?$AAw?$AAp?$AAr?$AAi?$AAn?$AAt?$AAf?$AA?$AA@ 00465c94     LIBCMTD:swprintf.obj
 0002:00005ca8       ??_C@_1GE@DKGHLBLP@?$AAf?$AA?3?$AA?2?$AAd?$AAd?$AA?2?$AAv?$AAc?$AAt?$AAo?$AAo?$AAl?$AAs?$AA?2?$AAc?$AAr?$AAt?$AA_?$AAb?$AAl?$AAd?$AA?2?$AAs?$AAe?$AAl?$AAf?$AA_?$AAx?$AA8?$AA6?$AA?2?$AAc@ 00465ca8     LIBCMTD:swprintf.obj
 0002:00005d0c       ??_C@_1CC@MGIEJOME@?$AA?$CI?$AAf?$AAo?$AAr?$AAm?$AAa?$AAt?$AA?5?$AA?$CB?$AA?$DN?$AA?5?$AAN?$AAU?$AAL?$AAL?$AA?$CJ?$AA?$AA@ 00465d0c     LIBCMTD:swprintf.obj
 0002:00005d30       ??_C@_1CK@DDKKOLAN@?$AAs?$AAi?$AAz?$AAe?$AAI?$AAn?$AAB?$AAy?$AAt?$AAe?$AAs?$AA?5?$AA?$DO?$AA?$DN?$AA?5?$AAc?$AAo?$AAu?$AAn?$AAt?$AA?$AA@ 00465d30     LIBCMTD:memcpy_s.obj
 0002:00005d5c       ??_C@_1BI@DCHLDCPP@?$AAs?$AAr?$AAc?$AA?5?$AA?$CB?$AA?$DN?$AA?5?$AAN?$AAU?$AAL?$AAL?$AA?$AA@ 00465d5c     LIBCMTD:memcpy_s.obj
 0002:00005d74       ??_C@_1BC@GKHDJMGB@?$AAm?$AAe?$AAm?$AAc?$AAp?$AAy?$AA_?$AAs?$AA?$AA@ 00465d74     LIBCMTD:memcpy_s.obj
 0002:00005d88       ??_C@_1GE@NEOPGGBM@?$AAf?$AA?3?$AA?2?$AAd?$AAd?$AA?2?$AAv?$AAc?$AAt?$AAo?$AAo?$AAl?$AAs?$AA?2?$AAc?$AAr?$AAt?$AA_?$AAb?$AAl?$AAd?$AA?2?$AAs?$AAe?$AAl?$AAf?$AA_?$AAx?$AA8?$AA6?$AA?2?$AAc@ 00465d88     LIBCMTD:memcpy_s.obj
 0002:00005dec       ??_C@_1BI@GKKCBDMD@?$AAd?$AAs?$AAt?$AA?5?$AA?$CB?$AA?$DN?$AA?5?$AAN?$AAU?$AAL?$AAL?$AA?$AA@ 00465dec     LIBCMTD:memcpy_s.obj
 0002:00005e04       ??_C@_1DM@MADKGDLO@?$AA?$CI?$AAL?$AA?$CC?$AAB?$AAu?$AAf?$AAf?$AAe?$AAr?$AA?5?$AAi?$AAs?$AA?5?$AAt?$AAo?$AAo?$AA?5?$AAs?$AAm?$AAa?$AAl?$AAl?$AA?$CC?$AA?5?$AA?$CG?$AA?$CG?$AA?5?$AA0?$AA?$CJ?$AA?$AA@ 00465e04     LIBCMTD:wcscpy_s.obj
 0002:00005e40       ??_C@_1CI@HCPHDDLE@?$AAB?$AAu?$AAf?$AAf?$AAe?$AAr?$AA?5?$AAi?$AAs?$AA?5?$AAt?$AAo?$AAo?$AA?5?$AAs?$AAm?$AAa?$AAl?$AAl?$AA?$AA@ 00465e40     LIBCMTD:wcscpy_s.obj
 0002:00005e68       ??_C@_1CG@OFBJMIGJ@?$AA?$CI?$AA?$CI?$AA?$CI?$AA_?$AAS?$AAr?$AAc?$AA?$CJ?$AA?$CJ?$AA?$CJ?$AA?5?$AA?$CB?$AA?$DN?$AA?5?$AAN?$AAU?$AAL?$AAL?$AA?$AA@ 00465e68     LIBCMTD:wcscpy_s.obj
 0002:00005e90       ??_C@_1BC@KIONAFPO@?$AAw?$AAc?$AAs?$AAc?$AAp?$AAy?$AA_?$AAs?$AA?$AA@ 00465e90     LIBCMTD:wcscpy_s.obj
 0002:00005ea8       ??_C@_1GI@BGBNCIMA@?$AAf?$AA?3?$AA?2?$AAd?$AAd?$AA?2?$AAv?$AAc?$AAt?$AAo?$AAo?$AAl?$AAs?$AA?2?$AAc?$AAr?$AAt?$AA_?$AAb?$AAl?$AAd?$AA?2?$AAs?$AAe?$AAl?$AAf?$AA_?$AAx?$AA8?$AA6?$AA?2?$AAc@ 00465ea8     LIBCMTD:wcscpy_s.obj
 0002:00005f10       ??_C@_1FC@PFMLEHKI@?$AA?$CI?$AA?$CI?$AA_?$AAD?$AAs?$AAt?$AA?$CJ?$AA?$CJ?$AA?5?$AA?$CB?$AA?$DN?$AA?5?$AAN?$AAU?$AAL?$AAL?$AA?5?$AA?$CG?$AA?$CG?$AA?5?$AA?$CI?$AA?$CI?$AA_?$AAS?$AAi?$AAz?$AAe?$AAI?$AAn?$AAW?$AAo?$AAr@ 00465f10     LIBCMTD:wcscpy_s.obj
 0002:00005f64       ??_C@_0DB@MHMEONEC@f?3?2dd?2vctools?2crt_bld?2self_x86?2c@ 00465f64     LIBCMTD:mbctype.obj
 0002:00005f98       ??_C@_1GE@HMAALBPJ@?$AAf?$AA?3?$AA?2?$AAd?$AAd?$AA?2?$AAv?$AAc?$AAt?$AAo?$AAo?$AAl?$AAs?$AA?2?$AAc?$AAr?$AAt?$AA_?$AAb?$AAl?$AAd?$AA?2?$AAs?$AAe?$AAl?$AAf?$AA_?$AAx?$AA8?$AA6?$AA?2?$AAc@ 00465f98     LIBCMTD:localref.obj
 0002:00006000       ??_C@_1BKC@GGIENNAK@?$AA?$CI?$AA?$CI?$AAp?$AAt?$AAl?$AAo?$AAc?$AAi?$AA?9?$AA?$DO?$AAl?$AAc?$AA_?$AAc?$AAa?$AAt?$AAe?$AAg?$AAo?$AAr?$AAy?$AA?$FL?$AAc?$AAa?$AAt?$AAe?$AAg?$AAo?$AAr?$AAy?$AA?$FN?$AA?4@ 00466000     LIBCMTD:localref.obj
 0002:000061a4       ??_C@_1BC@GDGBMEMK@?$AAH?$AAH?$AA?3?$AAm?$AAm?$AA?3?$AAs?$AAs?$AA?$AA@ 004661a4     LIBCMTD:nlsdata2.obj
 0002:000061b8       ??_C@_1CI@KNAKOEBC@?$AAd?$AAd?$AAd?$AAd?$AA?0?$AA?5?$AAM?$AAM?$AAM?$AAM?$AA?5?$AAd?$AAd?$AA?0?$AA?5?$AAy?$AAy?$AAy?$AAy?$AA?$AA@ 004661b8     LIBCMTD:nlsdata2.obj
 0002:000061e0       ??_C@_1BC@IEBCMHCM@?$AAM?$AAM?$AA?1?$AAd?$AAd?$AA?1?$AAy?$AAy?$AA?$AA@ 004661e0     LIBCMTD:nlsdata2.obj
 0002:000061f4       ??_C@_15CLMNNGEL@?$AAP?$AAM?$AA?$AA@ 004661f4     LIBCMTD:nlsdata2.obj
 0002:000061fc       ??_C@_15ODEHAHHF@?$AAA?$AAM?$AA?$AA@ 004661fc     LIBCMTD:nlsdata2.obj
 0002:00006204       ??_C@_1BC@FEMKIFH@?$AAD?$AAe?$AAc?$AAe?$AAm?$AAb?$AAe?$AAr?$AA?$AA@ 00466204     LIBCMTD:nlsdata2.obj
 0002:00006218       ??_C@_1BC@BGLIFPF@?$AAN?$AAo?$AAv?$AAe?$AAm?$AAb?$AAe?$AAr?$AA?$AA@ 00466218     LIBCMTD:nlsdata2.obj
 0002:0000622c       ??_C@_1BA@EPANDLNG@?$AAO?$AAc?$AAt?$AAo?$AAb?$AAe?$AAr?$AA?$AA@ 0046622c     LIBCMTD:nlsdata2.obj
 0002:0000623c       ??_C@_1BE@DKAAMBJL@?$AAS?$AAe?$AAp?$AAt?$AAe?$AAm?$AAb?$AAe?$AAr?$AA?$AA@ 0046623c     LIBCMTD:nlsdata2.obj
 0002:00006250       ??_C@_1O@PAHLKOAC@?$AAA?$AAu?$AAg?$AAu?$AAs?$AAt?$AA?$AA@ 00466250     LIBCMTD:nlsdata2.obj
 0002:00006260       ??_C@_19BIFMLPCD@?$AAJ?$AAu?$AAl?$AAy?$AA?$AA@ 00466260     LIBCMTD:nlsdata2.obj
 0002:0000626c       ??_C@_19EPFLPGAP@?$AAJ?$AAu?$AAn?$AAe?$AA?$AA@ 0046626c     LIBCMTD:nlsdata2.obj
 0002:00006278       ??_C@_1M@GJNLMHFD@?$AAA?$AAp?$AAr?$AAi?$AAl?$AA?$AA@ 00466278     LIBCMTD:nlsdata2.obj
 0002:00006284       ??_C@_1M@IKEENEDF@?$AAM?$AAa?$AAr?$AAc?$AAh?$AA?$AA@ 00466284     LIBCMTD:nlsdata2.obj
 0002:00006290       ??_C@_1BC@JGDDFFAM@?$AAF?$AAe?$AAb?$AAr?$AAu?$AAa?$AAr?$AAy?$AA?$AA@ 00466290     LIBCMTD:nlsdata2.obj
 0002:000062a4       ??_C@_1BA@EFMEIEBA@?$AAJ?$AAa?$AAn?$AAu?$AAa?$AAr?$AAy?$AA?$AA@ 004662a4     LIBCMTD:nlsdata2.obj
 0002:000062b4       ??_C@_17EGKACKIF@?$AAD?$AAe?$AAc?$AA?$AA@ 004662b4     LIBCMTD:nlsdata2.obj
 0002:000062bc       ??_C@_17BBDMLCIG@?$AAN?$AAo?$AAv?$AA?$AA@ 004662bc     LIBCMTD:nlsdata2.obj
 0002:000062c4       ??_C@_17FNLKOI@?$AAO?$AAc?$AAt?$AA?$AA@ 004662c4     LIBCMTD:nlsdata2.obj
 0002:000062cc       ??_C@_17HCHCOKMG@?$AAS?$AAe?$AAp?$AA?$AA@ 004662cc     LIBCMTD:nlsdata2.obj
 0002:000062d4       ??_C@_17ICPELBCN@?$AAA?$AAu?$AAg?$AA?$AA@ 004662d4     LIBCMTD:nlsdata2.obj
 0002:000062dc       ??_C@_17IJPCKHK@?$AAJ?$AAu?$AAl?$AA?$AA@ 004662dc     LIBCMTD:nlsdata2.obj
 0002:000062e4       ??_C@_17KCJGOCPB@?$AAJ?$AAu?$AAn?$AA?$AA@ 004662e4     LIBCMTD:nlsdata2.obj
 0002:000062ec       ??_C@_17PNNKMEED@?$AAM?$AAa?$AAy?$AA?$AA@ 004662ec     LIBCMTD:nlsdata2.obj
 0002:000062f4       ??_C@_17LFPOIHDD@?$AAA?$AAp?$AAr?$AA?$AA@ 004662f4     LIBCMTD:nlsdata2.obj
 0002:000062fc       ??_C@_17CKNLEDEC@?$AAM?$AAa?$AAr?$AA?$AA@ 004662fc     LIBCMTD:nlsdata2.obj
 0002:00006304       ??_C@_17LMDJEKJN@?$AAF?$AAe?$AAb?$AA?$AA@ 00466304     LIBCMTD:nlsdata2.obj
 0002:0000630c       ??_C@_17DKNBKCHM@?$AAJ?$AAa?$AAn?$AA?$AA@ 0046630c     LIBCMTD:nlsdata2.obj
 0002:00006314       ??_C@_1BC@ENMNNPAJ@?$AAS?$AAa?$AAt?$AAu?$AAr?$AAd?$AAa?$AAy?$AA?$AA@ 00466314     LIBCMTD:nlsdata2.obj
 0002:00006328       ??_C@_1O@PDICJHAG@?$AAF?$AAr?$AAi?$AAd?$AAa?$AAy?$AA?$AA@ 00466328     LIBCMTD:nlsdata2.obj
 0002:00006338       ??_C@_1BC@HHMNLIHE@?$AAT?$AAh?$AAu?$AAr?$AAs?$AAd?$AAa?$AAy?$AA?$AA@ 00466338     LIBCMTD:nlsdata2.obj
 0002:0000634c       ??_C@_1BE@EBOGMDOH@?$AAW?$AAe?$AAd?$AAn?$AAe?$AAs?$AAd?$AAa?$AAy?$AA?$AA@ 0046634c     LIBCMTD:nlsdata2.obj
 0002:00006360       ??_C@_1BA@ENFBFFEK@?$AAT?$AAu?$AAe?$AAs?$AAd?$AAa?$AAy?$AA?$AA@ 00466360     LIBCMTD:nlsdata2.obj
 0002:00006370       ??_C@_1O@MMNBFLIA@?$AAM?$AAo?$AAn?$AAd?$AAa?$AAy?$AA?$AA@ 00466370     LIBCMTD:nlsdata2.obj
 0002:00006380       ??_C@_1O@IHNHDHPB@?$AAS?$AAu?$AAn?$AAd?$AAa?$AAy?$AA?$AA@ 00466380     LIBCMTD:nlsdata2.obj
 0002:00006390       ??_C@_17GGIBDPIH@?$AAS?$AAa?$AAt?$AA?$AA@ 00466390     LIBCMTD:nlsdata2.obj
 0002:00006398       ??_C@_17HFOLPPLP@?$AAF?$AAr?$AAi?$AA?$AA@ 00466398     LIBCMTD:nlsdata2.obj
 0002:000063a0       ??_C@_17PDPHAADD@?$AAT?$AAh?$AAu?$AA?$AA@ 004663a0     LIBCMTD:nlsdata2.obj
 0002:000063a8       ??_C@_17CJEDCEPE@?$AAW?$AAe?$AAd?$AA?$AA@ 004663a8     LIBCMTD:nlsdata2.obj
 0002:000063b0       ??_C@_17BMKGEGOJ@?$AAT?$AAu?$AAe?$AA?$AA@ 004663b0     LIBCMTD:nlsdata2.obj
 0002:000063b8       ??_C@_17KBOMKBF@?$AAM?$AAo?$AAn?$AA?$AA@ 004663b8     LIBCMTD:nlsdata2.obj
 0002:000063c0       ??_C@_17MBGCMIPB@?$AAS?$AAu?$AAn?$AA?$AA@ 004663c0     LIBCMTD:nlsdata2.obj
 0002:000063c8       ??_C@_08JCCMCCIL@HH?3mm?3ss?$AA@ 004663c8     LIBCMTD:nlsdata2.obj
 0002:000063d4       ??_C@_0BE@CKGJFCPC@dddd?0?5MMMM?5dd?0?5yyyy?$AA@ 004663d4     LIBCMTD:nlsdata2.obj
 0002:000063e8       ??_C@_08BPBNCDIB@MM?1dd?1yy?$AA@ 004663e8     LIBCMTD:nlsdata2.obj
 0002:000063f4       ??_C@_02CJNFDJBF@PM?$AA@   004663f4     LIBCMTD:nlsdata2.obj
 0002:000063f8       ??_C@_02DEDBPAFC@AM?$AA@   004663f8     LIBCMTD:nlsdata2.obj
 0002:000063fc       ??_C@_08EDHMEBNP@December?$AA@ 004663fc     LIBCMTD:nlsdata2.obj
 0002:00006408       ??_C@_08HCHEGEOA@November?$AA@ 00466408     LIBCMTD:nlsdata2.obj
 0002:00006414       ??_C@_07JJNFCEND@October?$AA@ 00466414     LIBCMTD:nlsdata2.obj
 0002:0000641c       ??_C@_09BHHEALKD@September?$AA@ 0046641c     LIBCMTD:nlsdata2.obj
 0002:00006428       ??_C@_06LBBHFDDG@August?$AA@ 00466428     LIBCMTD:nlsdata2.obj
 0002:00006430       ??_C@_04MIEPOIFP@July?$AA@ 00466430     LIBCMTD:nlsdata2.obj
 0002:00006438       ??_C@_04CNLMGBGM@June?$AA@ 00466438     LIBCMTD:nlsdata2.obj
 0002:00006440       ??_C@_05DMJDNLEJ@April?$AA@ 00466440     LIBCMTD:nlsdata2.obj
 0002:00006448       ??_C@_05HPCKOFNC@March?$AA@ 00466448     LIBCMTD:nlsdata2.obj
 0002:00006450       ??_C@_08GNJGEPFN@February?$AA@ 00466450     LIBCMTD:nlsdata2.obj
 0002:0000645c       ??_C@_07CGJPFGJA@January?$AA@ 0046645c     LIBCMTD:nlsdata2.obj
 0002:00006464       ??_C@_03MKABNOCG@Dec?$AA@  00466464     LIBCMTD:nlsdata2.obj
 0002:00006468       ??_C@_03JPJOFNIA@Nov?$AA@  00466468     LIBCMTD:nlsdata2.obj
 0002:0000646c       ??_C@_03BMAOKBAD@Oct?$AA@  0046646c     LIBCMTD:nlsdata2.obj
 0002:00006470       ??_C@_03GGCAPAJC@Sep?$AA@  00466470     LIBCMTD:nlsdata2.obj
 0002:00006474       ??_C@_03IFJFEIGA@Aug?$AA@  00466474     LIBCMTD:nlsdata2.obj
 0002:00006478       ??_C@_03LBGABGKK@Jul?$AA@  00466478     LIBCMTD:nlsdata2.obj
 0002:0000647c       ??_C@_03IDFGHECI@Jun?$AA@  0046647c     LIBCMTD:nlsdata2.obj
 0002:00006480       ??_C@_03CNMDKL@May?$AA@    00466480     LIBCMTD:nlsdata2.obj
 0002:00006484       ??_C@_03LEOLGMJP@Apr?$AA@  00466484     LIBCMTD:nlsdata2.obj
 0002:00006488       ??_C@_03ODNJBKGA@Mar?$AA@  00466488     LIBCMTD:nlsdata2.obj
 0002:0000648c       ??_C@_03HJBDCHOM@Feb?$AA@  0046648c     LIBCMTD:nlsdata2.obj
 0002:00006490       ??_C@_03JIHJHPIE@Jan?$AA@  00466490     LIBCMTD:nlsdata2.obj
 0002:00006494       ??_C@_08INBOOONO@Saturday?$AA@ 00466494     LIBCMTD:nlsdata2.obj
 0002:000064a0       ??_C@_06JECMNKMI@Friday?$AA@ 004664a0     LIBCMTD:nlsdata2.obj
 0002:000064a8       ??_C@_08HACCIKIA@Thursday?$AA@ 004664a8     LIBCMTD:nlsdata2.obj
 0002:000064b4       ??_C@_09DLIGFAKA@Wednesday?$AA@ 004664b4     LIBCMTD:nlsdata2.obj
 0002:000064c0       ??_C@_07BAAGCFCM@Tuesday?$AA@ 004664c0     LIBCMTD:nlsdata2.obj
 0002:000064c8       ??_C@_06JLEDEDGH@Monday?$AA@ 004664c8     LIBCMTD:nlsdata2.obj
 0002:000064d0       ??_C@_06OOPIFAJ@Sunday?$AA@ 004664d0     LIBCMTD:nlsdata2.obj
 0002:000064d8       ??_C@_03FEFJNEK@Sat?$AA@   004664d8     LIBCMTD:nlsdata2.obj
 0002:000064dc       ??_C@_03IDIOELNC@Fri?$AA@  004664dc     LIBCMTD:nlsdata2.obj
 0002:000064e0       ??_C@_03IOFIKPDN@Thu?$AA@  004664e0     LIBCMTD:nlsdata2.obj
 0002:000064e4       ??_C@_03MHOMLAJA@Wed?$AA@  004664e4     LIBCMTD:nlsdata2.obj
 0002:000064e8       ??_C@_03NAGEINEP@Tue?$AA@  004664e8     LIBCMTD:nlsdata2.obj
 0002:000064ec       ??_C@_03PDAGKDH@Mon?$AA@   004664ec     LIBCMTD:nlsdata2.obj
 0002:000064f0       ??_C@_03KOEHGMDN@Sun?$AA@  004664f0     LIBCMTD:nlsdata2.obj
 0002:000064f4       ??_C@_1BC@CFJEPFGF@?$AAs?$AAt?$AAr?$AAc?$AAp?$AAy?$AA_?$AAs?$AA?$AA@ 004664f4     LIBCMTD:strcpy_s.obj
 0002:00006508       ??_C@_1FC@NCPEPIBI@?$AA?$CI?$AA?$CI?$AA_?$AAD?$AAs?$AAt?$AA?$CJ?$AA?$CJ?$AA?5?$AA?$CB?$AA?$DN?$AA?5?$AAN?$AAU?$AAL?$AAL?$AA?5?$AA?$CG?$AA?$CG?$AA?5?$AA?$CI?$AA?$CI?$AA_?$AAS?$AAi?$AAz?$AAe?$AAI?$AAn?$AAB?$AAy?$AAt@ 00466508     LIBCMTD:strcpy_s.obj
 0002:00006560       __XcptActTab               00466560     LIBCMTD:winxfltr.obj
 0002:000065f0       __First_FPE_Indx           004665f0     LIBCMTD:winxfltr.obj
 0002:000065f4       __Num_FPE                  004665f4     LIBCMTD:winxfltr.obj
 0002:000065f8       __XcptActTabSize           004665f8     LIBCMTD:winxfltr.obj
 0002:000065fc       __XcptActTabCount          004665fc     LIBCMTD:winxfltr.obj
 0002:00006600       ??_C@_1DE@MMOGFGHF@?$AAs?$AAt?$AAr?$AAc?$AAp?$AAy?$AA_?$AAs?$AA?$CI?$AA?$CK?$AAe?$AAn?$AAv?$AA?0?$AA?5?$AAc?$AAc?$AAh?$AAa?$AAr?$AAs?$AA?0?$AA?5?$AAp?$AA?$CJ?$AA?$AA@ 00466600     LIBCMTD:stdenvp.obj
 0002:00006634       ??_C@_1BC@GHMCNHHL@?$AA_?$AAs?$AAe?$AAt?$AAe?$AAn?$AAv?$AAp?$AA?$AA@ 00466634     LIBCMTD:stdenvp.obj
 0002:00006648       ??_C@_1GC@DGBFLDBN@?$AAf?$AA?3?$AA?2?$AAd?$AAd?$AA?2?$AAv?$AAc?$AAt?$AAo?$AAo?$AAl?$AAs?$AA?2?$AAc?$AAr?$AAt?$AA_?$AAb?$AAl?$AAd?$AA?2?$AAs?$AAe?$AAl?$AAf?$AA_?$AAx?$AA8?$AA6?$AA?2?$AAc@ 00466648     LIBCMTD:stdenvp.obj
 0002:000066ac       ??_C@_0DB@BMEBJJKP@f?3?2dd?2vctools?2crt_bld?2self_x86?2c@ 004666ac     LIBCMTD:stdenvp.obj
 0002:000066e0       ??_C@_0DB@OEPBJOLC@f?3?2dd?2vctools?2crt_bld?2self_x86?2c@ 004666e0     LIBCMTD:stdargv.obj
 0002:00006714       ??_C@_0CP@PPLBCJDN@f?3?2dd?2vctools?2crt_bld?2self_x86?2c@ 00466714     LIBCMTD:a_env.obj
 0002:00006744       ??_C@_0DA@NBLAKPEL@f?3?2dd?2vctools?2crt_bld?2self_x86?2c@ 00466744     LIBCMTD:ioinit.obj
 0002:00006778       ??_C@_1GE@JDDMFOID@?$AAf?$AA?3?$AA?2?$AAd?$AAd?$AA?2?$AAv?$AAc?$AAt?$AAo?$AAo?$AAl?$AAs?$AA?2?$AAc?$AAr?$AAt?$AA_?$AAb?$AAl?$AAd?$AA?2?$AAs?$AAe?$AAl?$AAf?$AA_?$AAx?$AA8?$AA6?$AA?2?$AAc@ 00466778     LIBCMTD:heapinit.obj
 0002:000067dc       ??_C@_1BC@DENNNKIM@?$AA_?$AAc?$AAr?$AAt?$AAh?$AAe?$AAa?$AAp?$AA?$AA@ 004667dc     LIBCMTD:heapinit.obj
 0002:0000680c       ??_C@_01KDCPPGHE@r?$AA@    0046680c     LIBCMTD:_pdblkup_.obj
 0002:00006810       ??_C@_0BB@KCIACLNC@PDBOpenValidate5?$AA@ 00466810     LIBCMTD:_pdblkup_.obj
 0002:00006824       ??_C@_1CK@HHHCOJPD@?$AAE?$AAn?$AAv?$AAi?$AAr?$AAo?$AAn?$AAm?$AAe?$AAn?$AAt?$AAD?$AAi?$AAr?$AAe?$AAc?$AAt?$AAo?$AAr?$AAy?$AA?$AA@ 00466824     LIBCMTD:_pdblkup_.obj
 0002:00006850       ??_C@_1FM@DNCABAP@?$AAS?$AAO?$AAF?$AAT?$AAW?$AAA?$AAR?$AAE?$AA?2?$AAM?$AAi?$AAc?$AAr?$AAo?$AAs?$AAo?$AAf?$AAt?$AA?2?$AAV?$AAi?$AAs?$AAu?$AAa?$AAl?$AAS?$AAt?$AAu?$AAd?$AAi?$AAo?$AA?2@ 00466850     LIBCMTD:_pdblkup_.obj
 0002:000068ac       ??_C@_0M@HLOHPNFA@RegCloseKey?$AA@ 004668ac     LIBCMTD:_pdblkup_.obj
 0002:000068b8       ??_C@_0BB@GLNAEDBD@RegQueryValueExW?$AA@ 004668b8     LIBCMTD:_pdblkup_.obj
 0002:000068cc       ??_C@_0O@COHOBMLB@RegOpenKeyExW?$AA@ 004668cc     LIBCMTD:_pdblkup_.obj
 0002:000068dc       ??_C@_1BK@GAEMIDIL@?$AAA?$AAD?$AAV?$AAA?$AAP?$AAI?$AA3?$AA2?$AA?4?$AAD?$AAL?$AAL?$AA?$AA@ 004668dc     LIBCMTD:_pdblkup_.obj
 0002:000068f8       ??_C@_03KHICJKCI@?4?4?4?$AA@ 004668f8     LIBCMTD:dbgrpt.obj
 0002:000068fc       ??_C@_0BB@NAGLCMLI@Assertion?5Failed?$AA@ 004668fc     LIBCMTD:dbgrpt.obj
 0002:00006910       ??_C@_05NAOIJFC@Error?$AA@ 00466910     LIBCMTD:dbgrpt.obj
 0002:00006918       ??_C@_07KGMMFLDN@Warning?$AA@ 00466918     LIBCMTD:dbgrpt.obj
 0002:0000692c       ??_C@_1CG@GNMJDMIO@?$AA_?$AAC?$AAr?$AAt?$AAS?$AAe?$AAt?$AAR?$AAe?$AAp?$AAo?$AAr?$AAt?$AAH?$AAo?$AAo?$AAk?$AA2?$AA?$AA@ 0046692c     LIBCMTD:dbgrpt.obj
 0002:00006954       ??_C@_0CD@EBCGLDDL@Microsoft?5Visual?5C?$CL?$CL?5Debug?5Libra@ 00466954     LIBCMTD:dbgrpt.obj
 0002:00006978       ??_C@_0FF@CCONDJCB@Debug?5?$CFs?$CB?6?6Program?3?5?$CFs?$CFs?$CFs?$CFs?$CFs?$CFs@ 00466978     LIBCMTD:dbgrpt.obj
 0002:000069d0       ??_C@_09OFBFHMBK@?6Module?3?5?$AA@ 004669d0     LIBCMTD:dbgrpt.obj
 0002:000069dc       ??_C@_07OPHPPLBG@?6File?3?5?$AA@ 004669dc     LIBCMTD:dbgrpt.obj
 0002:000069e4       ??_C@_07DBMPPHDI@?6Line?3?5?$AA@ 004669e4     LIBCMTD:dbgrpt.obj
 0002:000069ec       ??_C@_02PHMGELLB@?6?6?$AA@ 004669ec     LIBCMTD:dbgrpt.obj
 0002:000069f0       ??_C@_0N@MEECIJGN@Expression?3?5?$AA@ 004669f0     LIBCMTD:dbgrpt.obj
 0002:00006a00       ??_C@_0HD@GNBNFCCL@?6?6For?5information?5on?5how?5your?5pr@ 00466a00     LIBCMTD:dbgrpt.obj
 0002:00006a74       ??_C@_0BH@DNAGHKFM@?$DMprogram?5name?5unknown?$DO?$AA@ 00466a74     LIBCMTD:dbgrpt.obj
 0002:00006a90       ??_C@_1GG@DLDHOIGE@?$AAs?$AAt?$AAr?$AAc?$AAp?$AAy?$AA_?$AAs?$AA?$CI?$AAs?$AAz?$AAE?$AAx?$AAe?$AAN?$AAa?$AAm?$AAe?$AA?0?$AA?5?$AA2?$AA6?$AA0?$AA?0?$AA?5?$AA?$CC?$AA?$DM?$AAp?$AAr?$AAo?$AAg?$AAr@ 00466a90     LIBCMTD:dbgrpt.obj
 0002:00006af8       ??_C@_1CI@IDOKFLAJ@?$AA_?$AA_?$AAc?$AAr?$AAt?$AAM?$AAe?$AAs?$AAs?$AAa?$AAg?$AAe?$AAW?$AAi?$AAn?$AAd?$AAo?$AAw?$AAA?$AA?$AA@ 00466af8     LIBCMTD:dbgrpt.obj
 0002:00006b20       ??_C@_0BK@CFCOFLF@?5Complete?5Object?5Locator?8?$AA@ 00466b20     LIBCMTD:undname.obj
 0002:00006b3c       ??_C@_0BN@MECKDCOJ@?5Class?5Hierarchy?5Descriptor?8?$AA@ 00466b3c     LIBCMTD:undname.obj
 0002:00006b5c       ??_C@_0BD@LGICGFMM@?5Base?5Class?5Array?8?$AA@ 00466b5c     LIBCMTD:undname.obj
 0002:00006b70       ??_C@_0BM@LDKODKLH@?5Base?5Class?5Descriptor?5at?5?$CI?$AA@ 00466b70     LIBCMTD:undname.obj
 0002:00006b8c       ??_C@_0BC@DAFEJGAK@?5Type?5Descriptor?8?$AA@ 00466b8c     LIBCMTD:undname.obj
 0002:00006ba0       ??_C@_0BM@PMGGMLDN@?$GAlocal?5static?5thread?5guard?8?$AA@ 00466ba0     LIBCMTD:undname.obj
 0002:00006bbc       ??_C@_0CL@FGIJHLCE@?$GAmanaged?5vector?5copy?5constructor@ 00466bbc     LIBCMTD:undname.obj
 0002:00006be8       ??_C@_0CJ@GJELGAMM@?$GAvector?5vbase?5copy?5constructor?5i@ 00466be8     LIBCMTD:undname.obj
 0002:00006c14       ??_C@_0CD@CGAJBKEJ@?$GAvector?5copy?5constructor?5iterato@ 00466c14     LIBCMTD:undname.obj
 0002:00006c38       ??_C@_0CB@PDBIFEP@?$GAdynamic?5atexit?5destructor?5for?5?8@ 00466c38     LIBCMTD:undname.obj
 0002:00006c5c       ??_C@_0BL@CLIPGLGB@?$GAdynamic?5initializer?5for?5?8?$AA@ 00466c5c     LIBCMTD:undname.obj
 0002:00006c78       ??_C@_0CM@FCBBDIGB@?$GAeh?5vector?5vbase?5copy?5constructo@ 00466c78     LIBCMTD:undname.obj
 0002:00006ca4       ??_C@_0CG@HLDDJMAG@?$GAeh?5vector?5copy?5constructor?5iter@ 00466ca4     LIBCMTD:undname.obj
 0002:00006ccc       ??_C@_0CF@IMGKMJNO@?$GAmanaged?5vector?5destructor?5itera@ 00466ccc     LIBCMTD:undname.obj
 0002:00006cf4       ??_C@_0CG@CFDHKGGD@?$GAmanaged?5vector?5constructor?5iter@ 00466cf4     LIBCMTD:undname.obj
 0002:00006d1c       ??_C@_0BN@CKNJLHMB@?$GAplacement?5delete?$FL?$FN?5closure?8?$AA@ 00466d1c     LIBCMTD:undname.obj
 0002:00006d3c       ??_C@_0BL@CNOONJFP@?$GAplacement?5delete?5closure?8?$AA@ 00466d3c     LIBCMTD:undname.obj
 0002:00006d58       ??_C@_0P@HJKNJFNN@?$GAomni?5callsig?8?$AA@ 00466d58     LIBCMTD:undname.obj
 0002:00006d68       ??_C@_09LBNFPBCA@?5delete?$FL?$FN?$AA@ 00466d68     LIBCMTD:undname.obj
 0002:00006d74       ??_C@_06FHBGPFGH@?5new?$FL?$FN?$AA@ 00466d74     LIBCMTD:undname.obj
 0002:00006d7c       ??_C@_0CE@IIHCMGGL@?$GAlocal?5vftable?5constructor?5closu@ 00466d7c     LIBCMTD:undname.obj
 0002:00006da0       ??_C@_0BA@KKLDJDLB@?$GAlocal?5vftable?8?$AA@ 00466da0     LIBCMTD:undname.obj
 0002:00006db0       ??_C@_05KHLCHHI@?$GARTTI?$AA@ 00466db0     LIBCMTD:undname.obj
 0002:00006db8       ??_C@_03KLGMFNMG@?$GAEH?$AA@ 00466db8     LIBCMTD:undname.obj
 0002:00006dbc       ??_C@_0BA@KBCDOMBN@?$GAudt?5returning?8?$AA@ 00466dbc     LIBCMTD:undname.obj
 0002:00006dcc       ??_C@_0BL@LLKPOHJI@?$GAcopy?5constructor?5closure?8?$AA@ 00466dcc     LIBCMTD:undname.obj
 0002:00006de8       ??_C@_0CH@OOJPLCPH@?$GAeh?5vector?5vbase?5constructor?5ite@ 00466de8     LIBCMTD:undname.obj
 0002:00006e10       ??_C@_0CA@GCEOPDGL@?$GAeh?5vector?5destructor?5iterator?8?$AA@ 00466e10     LIBCMTD:undname.obj
 0002:00006e30       ??_C@_0CB@JONCMFFK@?$GAeh?5vector?5constructor?5iterator?8@ 00466e30     LIBCMTD:undname.obj
 0002:00006e54       ??_C@_0BL@NILFHHPC@?$GAvirtual?5displacement?5map?8?$AA@ 00466e54     LIBCMTD:undname.obj
 0002:00006e70       ??_C@_0CE@IKBNEHA@?$GAvector?5vbase?5constructor?5iterat@ 00466e70     LIBCMTD:undname.obj
 0002:00006e94       ??_C@_0BN@LFPFMEDL@?$GAvector?5destructor?5iterator?8?$AA@ 00466e94     LIBCMTD:undname.obj
 0002:00006eb4       ??_C@_0BO@PFGOCPJJ@?$GAvector?5constructor?5iterator?8?$AA@ 00466eb4     LIBCMTD:undname.obj
 0002:00006ed4       ??_C@_0BN@IMDCHIKM@?$GAscalar?5deleting?5destructor?8?$AA@ 00466ed4     LIBCMTD:undname.obj
 0002:00006ef4       ??_C@_0BO@OBMKPJIG@?$GAdefault?5constructor?5closure?8?$AA@ 00466ef4     LIBCMTD:undname.obj
 0002:00006f14       ??_C@_0BN@DEGPLNFK@?$GAvector?5deleting?5destructor?8?$AA@ 00466f14     LIBCMTD:undname.obj
 0002:00006f34       ??_C@_0BD@JDLKDPAB@?$GAvbase?5destructor?8?$AA@ 00466f34     LIBCMTD:undname.obj
 0002:00006f48       ??_C@_08OBABFOLI@?$GAstring?8?$AA@ 00466f48     LIBCMTD:undname.obj
 0002:00006f54       ??_C@_0BF@KDPPACIK@?$GAlocal?5static?5guard?8?$AA@ 00466f54     LIBCMTD:undname.obj
 0002:00006f6c       ??_C@_08LLFFHHDJ@?$GAtypeof?8?$AA@ 00466f6c     LIBCMTD:undname.obj
 0002:00006f78       ??_C@_07FEEIOKP@?$GAvcall?8?$AA@ 00466f78     LIBCMTD:undname.obj
 0002:00006f80       ??_C@_09BLBHBJP@?$GAvbtable?8?$AA@ 00466f80     LIBCMTD:undname.obj
 0002:00006f8c       ??_C@_09IFPLHPGF@?$GAvftable?8?$AA@ 00466f8c     LIBCMTD:undname.obj
 0002:00006f98       ??_C@_02MHEGNOJ@?$FO?$DN?$AA@ 00466f98     LIBCMTD:undname.obj
 0002:00006f9c       ??_C@_02DHLNPPGH@?$HM?$DN?$AA@ 00466f9c     LIBCMTD:undname.obj
 0002:00006fa0       ??_C@_02FGJGFEAB@?$CG?$DN?$AA@ 00466fa0     LIBCMTD:undname.obj
 0002:00006fa4       ??_C@_03CDNPDDLA@?$DM?$DM?$DN?$AA@ 00466fa4     LIBCMTD:undname.obj
 0002:00006fa8       ??_C@_03IKFCCPFF@?$DO?$DO?$DN?$AA@ 00466fa8     LIBCMTD:undname.obj
 0002:00006fac       ??_C@_02FENAOKFI@?$CF?$DN?$AA@ 00466fac     LIBCMTD:undname.obj
 0002:00006fb0       ??_C@_02FJEHGPIO@?1?$DN?$AA@ 00466fb0     LIBCMTD:undname.obj
 0002:00006fb4       ??_C@_02FKMDLLOA@?9?$DN?$AA@ 00466fb4     LIBCMTD:undname.obj
 0002:00006fb8       ??_C@_02FOEOMHFC@?$CL?$DN?$AA@ 00466fb8     LIBCMTD:undname.obj
 0002:00006fbc       ??_C@_02FPIMKNGF@?$CK?$DN?$AA@ 00466fbc     LIBCMTD:undname.obj
 0002:00006fc0       ??_C@_02NONPIBCD@?$HM?$HM?$AA@ 00466fc0     LIBCMTD:undname.obj
 0002:00006fc4       ??_C@_02PPKAJPJL@?$CG?$CG?$AA@ 00466fc4     LIBCMTD:undname.obj
 0002:00006fc8       ??_C@_01DNKMNLPK@?$HM?$AA@ 00466fc8     LIBCMTD:undname.obj
 0002:00006fcc       ??_C@_01JKBOJNNK@?$FO?$AA@ 00466fcc     LIBCMTD:undname.obj
 0002:00006fd0       ??_C@_01PJKLJHI@?$HO?$AA@  00466fd0     LIBCMTD:undname.obj
 0002:00006fd4       ??_C@_02HCKGKOFO@?$CI?$CJ?$AA@ 00466fd4     LIBCMTD:undname.obj
 0002:00006fd8       ??_C@_01IHBHIGKO@?0?$AA@   00466fd8     LIBCMTD:undname.obj
 0002:00006fdc       ??_C@_02EEKDKGMJ@?$DO?$DN?$AA@ 00466fdc     LIBCMTD:undname.obj
 0002:00006fe0       ??_C@_01PPODPGHN@?$DO?$AA@ 00466fe0     LIBCMTD:undname.obj
 0002:00006fe4       ??_C@_02EHCHHCKH@?$DM?$DN?$AA@ 00466fe4     LIBCMTD:undname.obj
 0002:00006fe8       ??_C@_01MNNFJEPP@?$DM?$AA@ 00466fe8     LIBCMTD:undname.obj
 0002:00006fec       ??_C@_01FGNFDNOH@?$CF?$AA@ 00466fec     LIBCMTD:undname.obj
 0002:00006ff0       ??_C@_01KMDKNFGN@?1?$AA@   00466ff0     LIBCMTD:undname.obj
 0002:00006ff4       ??_C@_03MNHNFDLC@?9?$DO?$CK?$AA@ 00466ff4     LIBCMTD:undname.obj
 0002:00006ff8       ??_C@_01HNPIGOCE@?$CG?$AA@ 00466ff8     LIBCMTD:undname.obj
 0002:00006ffc       ??_C@_01MIFGBAGJ@?$CL?$AA@ 00466ffc     LIBCMTD:undname.obj
 0002:00007000       ??_C@_01JOAMLHOP@?9?$AA@   00467000     LIBCMTD:undname.obj
 0002:00007004       ??_C@_02BAABKJLB@?9?9?$AA@ 00467004     LIBCMTD:undname.obj
 0002:00007008       ??_C@_02ECNGHCIF@?$CL?$CL?$AA@ 00467008     LIBCMTD:undname.obj
 0002:0000700c       ??_C@_01NBENCBCI@?$CK?$AA@ 0046700c     LIBCMTD:undname.obj
 0002:00007010       ??_C@_02HBOOOICD@?9?$DO?$AA@ 00467010     LIBCMTD:undname.obj
 0002:00007014       ??_C@_08LHJFAFGD@operator?$AA@ 00467014     LIBCMTD:undname.obj
 0002:00007020       ??_C@_02GPECMEKF@?$FL?$FN?$AA@ 00467020     LIBCMTD:undname.obj
 0002:00007024       ??_C@_02FDNJECIE@?$CB?$DN?$AA@ 00467024     LIBCMTD:undname.obj
 0002:00007028       ??_C@_02EGOFBIJA@?$DN?$DN?$AA@ 00467028     LIBCMTD:undname.obj
 0002:0000702c       ??_C@_01DCLJPIOD@?$CB?$AA@ 0046702c     LIBCMTD:undname.obj
 0002:00007030       ??_C@_02FODMEDOG@?$DM?$DM?$AA@ 00467030     LIBCMTD:undname.obj
 0002:00007034       ??_C@_02GPIOPFAK@?$DO?$DO?$AA@ 00467034     LIBCMTD:undname.obj
 0002:00007038       ??_C@_01NEMOKFLO@?$DN?$AA@ 00467038     LIBCMTD:undname.obj
 0002:0000703c       ??_C@_07FPCDHGMM@?5delete?$AA@ 0046703c     LIBCMTD:undname.obj
 0002:00007044       ??_C@_04NIHEBCM@?5new?$AA@ 00467044     LIBCMTD:undname.obj
 0002:0000704c       ??_C@_0M@GFIIJFMG@__unaligned?$AA@ 0046704c     LIBCMTD:undname.obj
 0002:00007058       ??_C@_0L@PILCLIHE@__restrict?$AA@ 00467058     LIBCMTD:undname.obj
 0002:00007064       ??_C@_07JOMMBBKO@__ptr64?$AA@ 00467064     LIBCMTD:undname.obj
 0002:0000706c       ??_C@_06GHPCKEAG@__eabi?$AA@ 0046706c     LIBCMTD:undname.obj
 0002:00007074       ??_C@_09HIJEGCPM@__clrcall?$AA@ 00467074     LIBCMTD:undname.obj
 0002:00007080       ??_C@_0L@JMKHOMEK@__fastcall?$AA@ 00467080     LIBCMTD:undname.obj
 0002:0000708c       ??_C@_0L@NPHFGOKO@__thiscall?$AA@ 0046708c     LIBCMTD:undname.obj
 0002:00007098       ??_C@_09IFJBGAPI@__stdcall?$AA@ 00467098     LIBCMTD:undname.obj
 0002:000070a4       ??_C@_08GHMPAG@__pascal?$AA@ 004670a4     LIBCMTD:undname.obj
 0002:000070b0       ??_C@_07KOLFKCDI@__cdecl?$AA@ 004670b0     LIBCMTD:undname.obj
 0002:000070b8       ??_C@_08EHJDFFNH@__based?$CI?$AA@ 004670b8     LIBCMTD:undname.obj
 0002:0000724c       ??_C@_04HEJADOOB@CV?3?5?$AA@ 0046724c     LIBCMTD:undname.obj
 0002:00007254       ??_C@_02MOLJINC@?3?3?$AA@  00467254     LIBCMTD:undname.obj
 0002:00007258       ??_C@_01GEODFPGF@?8?$AA@   00467258     LIBCMTD:undname.obj
 0002:0000725c       ??_C@_01NLNLIGKH@?$GA?$AA@ 0046725c     LIBCMTD:undname.obj
 0002:00007260       ??_C@_0O@KHGCOMHP@generic?9type?9?$AA@ 00467260     LIBCMTD:undname.obj
 0002:00007270       ??_C@_0BE@JAEOCHPE@template?9parameter?9?$AA@ 00467270     LIBCMTD:undname.obj
 0002:00007284       ??_C@_02OHHJMEON@?8?8?$AA@ 00467284     LIBCMTD:undname.obj
 0002:00007288       ??_C@_0BG@JNJLAMPM@?$GAanonymous?5namespace?8?$AA@ 00467288     LIBCMTD:undname.obj
 0002:000072a0       ??_C@_0BN@IBLMMFAP@?$GAnon?9type?9template?9parameter?$AA@ 004672a0     LIBCMTD:undname.obj
 0002:000072c0       ??_C@_0BE@EODMJLIF@?$GAtemplate?9parameter?$AA@ 004672c0     LIBCMTD:undname.obj
 0002:000072d4       ??_C@_04GKJNKENE@void?$AA@ 004672d4     LIBCMTD:undname.obj
 0002:000072dc       ??_C@_04HIBGFPH@NULL?$AA@  004672dc     LIBCMTD:undname.obj
 0002:000072e4       ??_C@_0M@DHNBOJMP@extern?5?$CCC?$CC?5?$AA@ 004672e4     LIBCMTD:undname.obj
 0002:000072f0       ??_C@_08KJLFOPNE@?$FLthunk?$FN?3?$AA@ 004672f0     LIBCMTD:undname.obj
 0002:000072fc       ??_C@_08GPDDCMKI@public?3?5?$AA@ 004672fc     LIBCMTD:undname.obj
 0002:00007308       ??_C@_0M@GAIFPFIP@protected?3?5?$AA@ 00467308     LIBCMTD:undname.obj
 0002:00007314       ??_C@_09LAPHOOG@private?3?5?$AA@ 00467314     LIBCMTD:undname.obj
 0002:00007320       ??_C@_08NIEOINHE@virtual?5?$AA@ 00467320     LIBCMTD:undname.obj
 0002:0000732c       ??_C@_07PGOEDBHP@static?5?$AA@ 0046732c     LIBCMTD:undname.obj
 0002:00007334       ??_C@_0DA@HGFJFBBE@?$GAtemplate?5static?5data?5member?5des@ 00467334     LIBCMTD:undname.obj
 0002:00007364       ??_C@_0DB@ILEFOCIJ@?$GAtemplate?5static?5data?5member?5con@ 00467364     LIBCMTD:undname.obj
 0002:00007398       ??_C@_0CB@KJDOOODE@?$GAlocal?5static?5destructor?5helper?8@ 00467398     LIBCMTD:undname.obj
 0002:000073bc       ??_C@_0L@HNGCOGAE@?$GAadjustor?$HL?$AA@ 004673bc     LIBCMTD:undname.obj
 0002:000073c8       ??_C@_0L@GHPFDFH@?$GAvtordisp?$HL?$AA@ 004673c8     LIBCMTD:undname.obj
 0002:000073d4       ??_C@_0N@CBHHHENL@?$GAvtordispex?$HL?$AA@ 004673d4     LIBCMTD:undname.obj
 0002:000073e4       ??_C@_01CLKCMJKC@?5?$AA@   004673e4     LIBCMTD:undname.obj
 0002:000073e8       ??_C@_02IGFCGPIL@?$HN?8?$AA@ 004673e8     LIBCMTD:undname.obj
 0002:000073ec       ??_C@_03OPGICMGF@?$HN?8?5?$AA@ 004673ec     LIBCMTD:undname.obj
 0002:000073f0       ??_C@_02KCKGHPCA@?$CJ?5?$AA@ 004673f0     LIBCMTD:undname.obj
 0002:000073f4       ??_C@_05BEFAKPML@void?5?$AA@ 004673f4     LIBCMTD:undname.obj
 0002:000073fc       ??_C@_0P@GCOCNKDM@std?3?3nullptr_t?$AA@ 004673fc     LIBCMTD:undname.obj
 0002:0000740c       ??_C@_08PABEKFH@volatile?$AA@ 0046740c     LIBCMTD:undname.obj
 0002:00007418       ??_C@_0M@ELJOJFFH@?0?$DMellipsis?$DO?$AA@ 00467418     LIBCMTD:undname.obj
 0002:00007424       ??_C@_04EENFHACM@?0?4?4?4?$AA@ 00467424     LIBCMTD:undname.obj
 0002:0000742c       ??_C@_0L@EGPHHEKN@?$DMellipsis?$DO?$AA@ 0046742c     LIBCMTD:undname.obj
 0002:00007438       ??_C@_07HDJPLPEK@?5throw?$CI?$AA@ 00467438     LIBCMTD:undname.obj
 0002:00007440       ??_C@_09EFNPDFFP@?5volatile?$AA@ 00467440     LIBCMTD:undname.obj
 0002:0000744c       ??_C@_05BNCCCJPP@const?$AA@ 0046744c     LIBCMTD:undname.obj
 0002:00007454       ??_C@_07EDHNAJHC@signed?5?$AA@ 00467454     LIBCMTD:undname.obj
 0002:0000745c       ??_C@_09EBBEKKIH@unsigned?5?$AA@ 0046745c     LIBCMTD:undname.obj
 0002:00007468       ??_C@_07NFANNNEC@UNKNOWN?$AA@ 00467468     LIBCMTD:undname.obj
 0002:00007470       ??_C@_06GCICPBLB@__w64?5?$AA@ 00467470     LIBCMTD:undname.obj
 0002:00007478       ??_C@_07CLGGIAMF@wchar_t?$AA@ 00467478     LIBCMTD:undname.obj
 0002:00007480       ??_C@_09EEKGDCPH@?$DMunknown?$DO?$AA@ 00467480     LIBCMTD:undname.obj
 0002:0000748c       ??_C@_08GAHOLHEO@__int128?$AA@ 0046748c     LIBCMTD:undname.obj
 0002:00007498       ??_C@_07LFCOJCAC@__int64?$AA@ 00467498     LIBCMTD:undname.obj
 0002:000074a0       ??_C@_07OFLPPHGP@__int32?$AA@ 004674a0     LIBCMTD:undname.obj
 0002:000074a8       ??_C@_07ICFHOGAF@__int16?$AA@ 004674a8     LIBCMTD:undname.obj
 0002:000074b0       ??_C@_06EBGKOKIG@__int8?$AA@ 004674b0     LIBCMTD:undname.obj
 0002:000074b8       ??_C@_04DDKJGDCM@bool?$AA@ 004674b8     LIBCMTD:undname.obj
 0002:000074c0       ??_C@_06BNJCAIGJ@double?$AA@ 004674c0     LIBCMTD:undname.obj
 0002:000074c8       ??_C@_05CJIMAING@long?5?$AA@ 004674c8     LIBCMTD:undname.obj
 0002:000074d0       ??_C@_05KNFBNCOH@float?$AA@ 004674d0     LIBCMTD:undname.obj
 0002:000074d8       ??_C@_04GOKPGOLB@long?$AA@ 004674d8     LIBCMTD:undname.obj
 0002:000074e0       ??_C@_03JBIPMCLC@int?$AA@  004674e0     LIBCMTD:undname.obj
 0002:000074e4       ??_C@_05BFKKPKCG@short?$AA@ 004674e4     LIBCMTD:undname.obj
 0002:000074ec       ??_C@_04ENMBGAPA@char?$AA@ 004674ec     LIBCMTD:undname.obj
 0002:000074f4       ??_C@_05LJGMCFOG@enum?5?$AA@ 004674f4     LIBCMTD:undname.obj
 0002:000074fc       ??_C@_0N@DLIEFKNA@cointerface?5?$AA@ 004674fc     LIBCMTD:undname.obj
 0002:0000750c       ??_C@_08KOFANOFK@coclass?5?$AA@ 0046750c     LIBCMTD:undname.obj
 0002:00007518       ??_C@_06LJBABKPM@class?5?$AA@ 00467518     LIBCMTD:undname.obj
 0002:00007520       ??_C@_07DIBCDNGL@struct?5?$AA@ 00467520     LIBCMTD:undname.obj
 0002:00007528       ??_C@_06MOJHIBMG@union?5?$AA@ 00467528     LIBCMTD:undname.obj
 0002:00007530       ??_C@_0P@GCIFDJCJ@?$GAunknown?5ecsu?8?$AA@ 00467530     LIBCMTD:undname.obj
 0002:00007540       ??_C@_04LAHKHJMA@int?5?$AA@ 00467540     LIBCMTD:undname.obj
 0002:00007548       ??_C@_06EHJMALKF@short?5?$AA@ 00467548     LIBCMTD:undname.obj
 0002:00007550       ??_C@_05CIHEBHNO@char?5?$AA@ 00467550     LIBCMTD:undname.obj
 0002:00007558       ??_C@_06LIJLOJAG@const?5?$AA@ 00467558     LIBCMTD:undname.obj
 0002:00007560       ??_C@_09GAIEOBLP@volatile?5?$AA@ 00467560     LIBCMTD:undname.obj
 0002:0000756c       ??_C@_0O@GKABPPIF@cli?3?3pin_ptr?$DM?$AA@ 0046756c     LIBCMTD:undname.obj
 0002:0000757c       ??_C@_0M@EALIELKG@cli?3?3array?$DM?$AA@ 0046757c     LIBCMTD:undname.obj
 0002:00007588       ??_C@_02GOGNNPBN@?$CJ?$FL?$AA@ 00467588     LIBCMTD:undname.obj
 0002:0000758c       ??_C@_06EEGAIFAK@?$HLflat?$HN?$AA@ 0046758c     LIBCMTD:undname.obj
 0002:00007594       ??_C@_02MDINNEEG@s?5?$AA@  00467594     LIBCMTD:undname.obj
 0002:00007598       ??_C@_05JIBOFOHK@?$HLfor?5?$AA@ 00467598     LIBCMTD:undname.obj
 0002:000075a0       ??_7DNameNode@@6B@         004675a0     LIBCMTD:undname.obj
 0002:000075ac       ??_7charNode@@6B@          004675ac     LIBCMTD:undname.obj
 0002:000075b8       ??_7pcharNode@@6B@         004675b8     LIBCMTD:undname.obj
 0002:000075c4       ??_7pDNameNode@@6B@        004675c4     LIBCMTD:undname.obj
 0002:000075d0       ??_7DNameStatusNode@@6B@   004675d0     LIBCMTD:undname.obj
 0002:000075dc       ??_C@_04OKOHEJBO@?5?$DP?$DP?5?$AA@ 004675dc     LIBCMTD:undname.obj
 0002:000075e4       ??_7pairNode@@6B@          004675e4     LIBCMTD:undname.obj
 0002:000075f0       ??_C@_1CA@LFDHAMEM@?$AA_?$AAs?$AAe?$AAt?$AA_?$AAe?$AAr?$AAr?$AAo?$AAr?$AA_?$AAm?$AAo?$AAd?$AAe?$AA?$AA@ 004675f0     LIBCMTD:errmode.obj
 0002:00007610       ??_C@_1GC@FGMGFCNB@?$AAf?$AA?3?$AA?2?$AAd?$AAd?$AA?2?$AAv?$AAc?$AAt?$AAo?$AAo?$AAl?$AAs?$AA?2?$AAc?$AAr?$AAt?$AA_?$AAb?$AAl?$AAd?$AA?2?$AAs?$AAe?$AAl?$AAf?$AA_?$AAx?$AA8?$AA6?$AA?2?$AAc@ 00467610     LIBCMTD:errmode.obj
 0002:00007674       ??_C@_1DE@BCNCAIK@?$AA?$CI?$AA?$CC?$AAI?$AAn?$AAv?$AAa?$AAl?$AAi?$AAd?$AA?5?$AAe?$AAr?$AAr?$AAo?$AAr?$AA_?$AAm?$AAo?$AAd?$AAe?$AA?$CC?$AA?0?$AA?5?$AA0?$AA?$CJ?$AA?$AA@ 00467674     LIBCMTD:errmode.obj
 0002:000076a8       ??_C@_1FA@MJKDNFFB@?$AA?$CI?$AAL?$AA?$CC?$AAS?$AAt?$AAr?$AAi?$AAn?$AAg?$AA?5?$AAi?$AAs?$AA?5?$AAn?$AAo?$AAt?$AA?5?$AAn?$AAu?$AAl?$AAl?$AA?5?$AAt?$AAe?$AAr?$AAm?$AAi?$AAn?$AAa?$AAt?$AAe?$AAd@ 004676a8     LIBCMTD:wcscat_s.obj
 0002:000076f8       ??_C@_1DM@FHLMIEG@?$AAS?$AAt?$AAr?$AAi?$AAn?$AAg?$AA?5?$AAi?$AAs?$AA?5?$AAn?$AAo?$AAt?$AA?5?$AAn?$AAu?$AAl?$AAl?$AA?5?$AAt?$AAe?$AAr?$AAm?$AAi?$AAn?$AAa?$AAt?$AAe?$AAd?$AA?$AA@ 004676f8     LIBCMTD:wcscat_s.obj
 0002:00007734       ??_C@_1BC@PLIEPKPJ@?$AAw?$AAc?$AAs?$AAc?$AAa?$AAt?$AA_?$AAs?$AA?$AA@ 00467734     LIBCMTD:wcscat_s.obj
 0002:00007748       ??_C@_1GI@NOKGIAGA@?$AAf?$AA?3?$AA?2?$AAd?$AAd?$AA?2?$AAv?$AAc?$AAt?$AAo?$AAo?$AAl?$AAs?$AA?2?$AAc?$AAr?$AAt?$AA_?$AAb?$AAl?$AAd?$AA?2?$AAs?$AAe?$AAl?$AAf?$AA_?$AAx?$AA8?$AA6?$AA?2?$AAc@ 00467748     LIBCMTD:wcscat_s.obj
 0002:000077b0       ??_C@_1BE@PMMBFFCC@?$AAw?$AAc?$AAs?$AAn?$AAc?$AAp?$AAy?$AA_?$AAs?$AA?$AA@ 004677b0     LIBCMTD:wcsncpy_s.obj
 0002:000077c8       ??_C@_1GK@PAJJBKJF@?$AAf?$AA?3?$AA?2?$AAd?$AAd?$AA?2?$AAv?$AAc?$AAt?$AAo?$AAo?$AAl?$AAs?$AA?2?$AAc?$AAr?$AAt?$AA_?$AAb?$AAl?$AAd?$AA?2?$AAs?$AAe?$AAl?$AAf?$AA_?$AAx?$AA8?$AA6?$AA?2?$AAc@ 004677c8     LIBCMTD:wcsncpy_s.obj
 0002:00007834       ??_C@_1BE@NDMJHJJG@?$AAs?$AAt?$AAr?$AAn?$AAc?$AAp?$AAy?$AA_?$AAs?$AA?$AA@ 00467834     LIBCMTD:strncpy_s.obj
 0002:00007848       ??_C@_1GA@INJGGEBC@?$AAf?$AA?3?$AA?2?$AAd?$AAd?$AA?2?$AAv?$AAc?$AAt?$AAo?$AAo?$AAl?$AAs?$AA?2?$AAc?$AAr?$AAt?$AA_?$AAb?$AAl?$AAd?$AA?2?$AAs?$AAe?$AAl?$AAf?$AA_?$AAx?$AA8?$AA6?$AA?2?$AAc@ 00467848     LIBCMTD:a_loc.obj
 0002:000078a8       ??_C@_1FE@KNPCCODH@?$AA?$CI?$AA?$CC?$AAC?$AAo?$AAr?$AAr?$AAu?$AAp?$AAt?$AAe?$AAd?$AA?5?$AAp?$AAo?$AAi?$AAn?$AAt?$AAe?$AAr?$AA?5?$AAp?$AAa?$AAs?$AAs?$AAe?$AAd?$AA?5?$AAt?$AAo?$AA?5?$AA_?$AAf@ 004678a8     LIBCMTD:a_loc.obj
 0002:000078fc       ??_C@_1BK@JMCGJOCC@?$AA_?$AAe?$AAx?$AAp?$AAa?$AAn?$AAd?$AA_?$AAb?$AAa?$AAs?$AAe?$AA?$AA@ 004678fc     LIBCMTD:expand.obj
 0002:00007918       ??_C@_1GA@EBHFLDNH@?$AAf?$AA?3?$AA?2?$AAd?$AAd?$AA?2?$AAv?$AAc?$AAt?$AAo?$AAo?$AAl?$AAs?$AA?2?$AAc?$AAr?$AAt?$AA_?$AAb?$AAl?$AAd?$AA?2?$AAs?$AAe?$AAl?$AAf?$AA_?$AAx?$AA8?$AA6?$AA?2?$AAc@ 00467918     LIBCMTD:expand.obj
 0002:00007978       ??_C@_1BO@KFIJIAEA@?$AAp?$AAB?$AAl?$AAo?$AAc?$AAk?$AA?5?$AA?$CB?$AA?$DN?$AA?5?$AAN?$AAU?$AAL?$AAL?$AA?$AA@ 00467978     LIBCMTD:expand.obj
 0002:00007998       ??_C@_1BA@KBJJGFFE@?$AAs?$AAp?$AAr?$AAi?$AAn?$AAt?$AAf?$AA?$AA@ 00467998     LIBCMTD:sprintf.obj
 0002:000079a8       ??_C@_1GC@BMNPEKNN@?$AAf?$AA?3?$AA?2?$AAd?$AAd?$AA?2?$AAv?$AAc?$AAt?$AAo?$AAo?$AAl?$AAs?$AA?2?$AAc?$AAr?$AAt?$AA_?$AAb?$AAl?$AAd?$AA?2?$AAs?$AAe?$AAl?$AAf?$AA_?$AAx?$AA8?$AA6?$AA?2?$AAc@ 004679a8     LIBCMTD:sprintf.obj
 0002:00007a10       ??_C@_1GC@CHGJNMHG@?$AAf?$AA?3?$AA?2?$AAd?$AAd?$AA?2?$AAv?$AAc?$AAt?$AAo?$AAo?$AAl?$AAs?$AA?2?$AAc?$AAr?$AAt?$AA_?$AAb?$AAl?$AAd?$AA?2?$AAs?$AAe?$AAl?$AAf?$AA_?$AAx?$AA8?$AA6?$AA?2?$AAc@ 00467a10     LIBCMTD:isctype.obj
 0002:00007a74       ??_C@_1DC@BPLPALML@?$AA?$CI?$AAu?$AAn?$AAs?$AAi?$AAg?$AAn?$AAe?$AAd?$AA?$CJ?$AA?$CI?$AAc?$AA?5?$AA?$CL?$AA?5?$AA1?$AA?$CJ?$AA?5?$AA?$DM?$AA?$DN?$AA?5?$AA2?$AA5?$AA6?$AA?$AA@ 00467a74     LIBCMTD:isctype.obj
 0002:00007aa8       ??_C@_1CG@JEHFHLNG@?$AA_?$AAm?$AAb?$AAs?$AAt?$AAo?$AAw?$AAc?$AAs?$AA_?$AAl?$AA_?$AAh?$AAe?$AAl?$AAp?$AAe?$AAr?$AA?$AA@ 00467aa8     LIBCMTD:mbstowcs.obj
 0002:00007ad0       ??_C@_1GE@LCCDHBMH@?$AAf?$AA?3?$AA?2?$AAd?$AAd?$AA?2?$AAv?$AAc?$AAt?$AAo?$AAo?$AAl?$AAs?$AA?2?$AAc?$AAr?$AAt?$AA_?$AAb?$AAl?$AAd?$AA?2?$AAs?$AAe?$AAl?$AAf?$AA_?$AAx?$AA8?$AA6?$AA?2?$AAc@ 00467ad0     LIBCMTD:mbstowcs.obj
 0002:00007b34       ??_C@_1BE@EEKACIGI@?$AAs?$AA?5?$AA?$CB?$AA?$DN?$AA?5?$AAN?$AAU?$AAL?$AAL?$AA?$AA@ 00467b34     LIBCMTD:mbstowcs.obj
 0002:00007b48       ??_C@_1CO@JNPEPJAL@?$AAr?$AAe?$AAt?$AAs?$AAi?$AAz?$AAe?$AA?5?$AA?$DM?$AA?$DN?$AA?5?$AAs?$AAi?$AAz?$AAe?$AAI?$AAn?$AAW?$AAo?$AAr?$AAd?$AAs?$AA?$AA@ 00467b48     LIBCMTD:mbstowcs.obj
 0002:00007b78       ??_C@_1CM@LLECFMFH@?$AAb?$AAu?$AAf?$AAf?$AAe?$AAr?$AAS?$AAi?$AAz?$AAe?$AA?5?$AA?$DM?$AA?$DN?$AA?5?$AAI?$AAN?$AAT?$AA_?$AAM?$AAA?$AAX?$AA?$AA@ 00467b78     LIBCMTD:mbstowcs.obj
 0002:00007ba4       ??_C@_1BM@PHENIGHD@?$AA_?$AAm?$AAb?$AAs?$AAt?$AAo?$AAw?$AAc?$AAs?$AA_?$AAs?$AA_?$AAl?$AA?$AA@ 00467ba4     LIBCMTD:mbstowcs.obj
 0002:00007bc0       ??_C@_1JA@JKDFMOPO@?$AA?$CI?$AAp?$AAw?$AAc?$AAs?$AA?5?$AA?$DN?$AA?$DN?$AA?5?$AAN?$AAU?$AAL?$AAL?$AA?5?$AA?$CG?$AA?$CG?$AA?5?$AAs?$AAi?$AAz?$AAe?$AAI?$AAn?$AAW?$AAo?$AAr?$AAd?$AAs?$AA?5?$AA?$DN?$AA?$DN?$AA?5@ 00467bc0     LIBCMTD:mbstowcs.obj
 0002:00007c50       ??_C@_1BC@HGPNAKGC@?$AAs?$AAt?$AAr?$AAc?$AAa?$AAt?$AA_?$AAs?$AA?$AA@ 00467c50     LIBCMTD:strcat_s.obj
 0002:00007c68       ??_C@_1EC@FABAOFFO@?$AA?$CI?$AAc?$AAo?$AAu?$AAn?$AAt?$AA?5?$AA?$DN?$AA?$DN?$AA?5?$AA0?$AA?$CJ?$AA?5?$AA?$HM?$AA?$HM?$AA?5?$AA?$CI?$AAs?$AAt?$AAr?$AAi?$AAn?$AAg?$AA?5?$AA?$CB?$AA?$DN?$AA?5?$AAN?$AAU?$AAL?$AAL?$AA?$CJ@ 00467c68     LIBCMTD:vsnprnc.obj
 0002:00007cac       ??_C@_1CE@PCFPEIFI@?$AA_?$AAv?$AAs?$AAn?$AAp?$AAr?$AAi?$AAn?$AAt?$AAf?$AA_?$AAh?$AAe?$AAl?$AAp?$AAe?$AAr?$AA?$AA@ 00467cac     LIBCMTD:vsnprnc.obj
 0002:00007cd0       ??_C@_1GE@DPADKNCG@?$AAf?$AA?3?$AA?2?$AAd?$AAd?$AA?2?$AAv?$AAc?$AAt?$AAo?$AAo?$AAl?$AAs?$AA?2?$AAc?$AAr?$AAt?$AA_?$AAb?$AAl?$AAd?$AA?2?$AAs?$AAe?$AAl?$AAf?$AA_?$AAx?$AA8?$AA6?$AA?2?$AAc@ 00467cd0     LIBCMTD:vsnprnc.obj
 0002:00007d34       ??_C@_1DA@HPBFKMEB@?$AA?$CI?$AA?$CC?$AAB?$AAu?$AAf?$AAf?$AAe?$AAr?$AA?5?$AAt?$AAo?$AAo?$AA?5?$AAs?$AAm?$AAa?$AAl?$AAl?$AA?$CC?$AA?0?$AA?5?$AA0?$AA?$CJ?$AA?$AA@ 00467d34     LIBCMTD:vsnprnc.obj
 0002:00007d68       ??_C@_1EE@OKCKIGFK@?$AAs?$AAt?$AAr?$AAi?$AAn?$AAg?$AA?5?$AA?$CB?$AA?$DN?$AA?5?$AAN?$AAU?$AAL?$AAL?$AA?5?$AA?$CG?$AA?$CG?$AA?5?$AAs?$AAi?$AAz?$AAe?$AAI?$AAn?$AAB?$AAy?$AAt?$AAe?$AAs?$AA?5?$AA?$DO?$AA?5@ 00467d68     LIBCMTD:vsnprnc.obj
 0002:00007dac       ??_C@_1BM@BLJALHEF@?$AA_?$AAv?$AAs?$AAp?$AAr?$AAi?$AAn?$AAt?$AAf?$AA_?$AAs?$AA_?$AAl?$AA?$AA@ 00467dac     LIBCMTD:vsnprnc.obj
 0002:00007dc8       ??_C@_1BO@MLMCMBKN@?$AAf?$AAo?$AAr?$AAm?$AAa?$AAt?$AA?5?$AA?$CB?$AA?$DN?$AA?5?$AAN?$AAU?$AAL?$AAL?$AA?$AA@ 00467dc8     LIBCMTD:vsnprnc.obj
 0002:00007de8       ??_C@_1BO@MMPELNIM@?$AA_?$AAv?$AAs?$AAn?$AAp?$AAr?$AAi?$AAn?$AAt?$AAf?$AA_?$AAs?$AA_?$AAl?$AA?$AA@ 00467de8     LIBCMTD:vsnprnc.obj
 0002:00007e08       ??_C@_1CM@HABGDNLJ@?$AAl?$AAe?$AAn?$AAg?$AAt?$AAh?$AA?5?$AA?$DM?$AA?5?$AAs?$AAi?$AAz?$AAe?$AAI?$AAn?$AAT?$AAC?$AAh?$AAa?$AAr?$AAs?$AA?$AA@ 00467e08     LIBCMTD:xtoas.obj
 0002:00007e34       ??_C@_1DE@PCJGDBBD@?$AA2?$AA?5?$AA?$DM?$AA?$DN?$AA?5?$AAr?$AAa?$AAd?$AAi?$AAx?$AA?5?$AA?$CG?$AA?$CG?$AA?5?$AAr?$AAa?$AAd?$AAi?$AAx?$AA?5?$AA?$DM?$AA?$DN?$AA?5?$AA3?$AA6?$AA?$AA@ 00467e34     LIBCMTD:xtoas.obj
 0002:00007e68       ??_C@_1FA@MKGGAGEI@?$AAs?$AAi?$AAz?$AAe?$AAI?$AAn?$AAT?$AAC?$AAh?$AAa?$AAr?$AAs?$AA?5?$AA?$DO?$AA?5?$AA?$CI?$AAs?$AAi?$AAz?$AAe?$AA_?$AAt?$AA?$CJ?$AA?$CI?$AAi?$AAs?$AA_?$AAn?$AAe?$AAg?$AA?5?$AA?$DP@ 00467e68     LIBCMTD:xtoas.obj
 0002:00007eb8       ??_C@_1CC@JNJFIMGE@?$AAs?$AAi?$AAz?$AAe?$AAI?$AAn?$AAT?$AAC?$AAh?$AAa?$AAr?$AAs?$AA?5?$AA?$DO?$AA?5?$AA0?$AA?$AA@ 00467eb8     LIBCMTD:xtoas.obj
 0002:00007edc       ??_C@_1O@GIMBNLEI@?$AAx?$AAt?$AAo?$AAa?$AA_?$AAs?$AA?$AA@ 00467edc     LIBCMTD:xtoas.obj
 0002:00007ef0       ??_C@_1FM@MFCBFCGB@?$AAf?$AA?3?$AA?2?$AAd?$AAd?$AA?2?$AAv?$AAc?$AAt?$AAo?$AAo?$AAl?$AAs?$AA?2?$AAc?$AAr?$AAt?$AA_?$AAb?$AAl?$AAd?$AA?2?$AAs?$AAe?$AAl?$AAf?$AA_?$AAx?$AA8?$AA6?$AA?2?$AAc@ 00467ef0     LIBCMTD:xtoas.obj
 0002:00007f4c       ??_C@_1BI@ICGGMGLK@?$AAb?$AAu?$AAf?$AA?5?$AA?$CB?$AA?$DN?$AA?5?$AAN?$AAU?$AAL?$AAL?$AA?$AA@ 00467f4c     LIBCMTD:xtoas.obj
 0002:00007f64       ??_C@_1BC@MJJNBNFN@?$AAx?$AA6?$AA4?$AAt?$AAo?$AAa?$AA_?$AAs?$AA?$AA@ 00467f64     LIBCMTD:xtoas.obj
 0002:00007f78       ??_C@_1CG@LLJCAOHF@?$AA_?$AAw?$AAc?$AAs?$AAt?$AAo?$AAm?$AAb?$AAs?$AA_?$AAl?$AA_?$AAh?$AAe?$AAl?$AAp?$AAe?$AAr?$AA?$AA@ 00467f78     LIBCMTD:wcstombs.obj
 0002:00007fa0       ??_C@_1GE@OAENIBOD@?$AAf?$AA?3?$AA?2?$AAd?$AAd?$AA?2?$AAv?$AAc?$AAt?$AAo?$AAo?$AAl?$AAs?$AA?2?$AAc?$AAr?$AAt?$AA_?$AAb?$AAl?$AAd?$AA?2?$AAs?$AAe?$AAl?$AAf?$AA_?$AAx?$AA8?$AA6?$AA?2?$AAc@ 00467fa0     LIBCMTD:wcstombs.obj
 0002:00008004       ??_C@_1BK@OIBENBPM@?$AAp?$AAw?$AAc?$AAs?$AA?5?$AA?$CB?$AA?$DN?$AA?5?$AAN?$AAU?$AAL?$AAL?$AA?$AA@ 00468004     LIBCMTD:wcstombs.obj
 0002:00008020       ??_C@_1CM@KEOGBFLI@?$AAs?$AAi?$AAz?$AAe?$AAI?$AAn?$AAB?$AAy?$AAt?$AAe?$AAs?$AA?5?$AA?$DO?$AA?5?$AAr?$AAe?$AAt?$AAs?$AAi?$AAz?$AAe?$AA?$AA@ 00468020     LIBCMTD:wcstombs.obj
 0002:0000804c       ??_C@_1BM@BDMCLLDL@?$AA_?$AAw?$AAc?$AAs?$AAt?$AAo?$AAm?$AAb?$AAs?$AA_?$AAs?$AA_?$AAl?$AA?$AA@ 0046804c     LIBCMTD:wcstombs.obj
 0002:00008068       ??_C@_1IM@MFGKHGBP@?$AA?$CI?$AAd?$AAs?$AAt?$AA?5?$AA?$CB?$AA?$DN?$AA?5?$AAN?$AAU?$AAL?$AAL?$AA?5?$AA?$CG?$AA?$CG?$AA?5?$AAs?$AAi?$AAz?$AAe?$AAI?$AAn?$AAB?$AAy?$AAt?$AAe?$AAs?$AA?5?$AA?$DO?$AA?5?$AA0?$AA?$CJ@ 00468068     LIBCMTD:wcstombs.obj
 0002:000080f4       ??_C@_1CE@IGKFIJFD@?$AA_?$AAv?$AAs?$AAw?$AAp?$AAr?$AAi?$AAn?$AAt?$AAf?$AA_?$AAh?$AAe?$AAl?$AAp?$AAe?$AAr?$AA?$AA@ 004680f4     LIBCMTD:vswprnc.obj
 0002:00008118       ??_C@_1GE@KINELFI@?$AAf?$AA?3?$AA?2?$AAd?$AAd?$AA?2?$AAv?$AAc?$AAt?$AAo?$AAo?$AAl?$AAs?$AA?2?$AAc?$AAr?$AAt?$AA_?$AAb?$AAl?$AAd?$AA?2?$AAs?$AAe?$AAl?$AAf?$AA_?$AAx?$AA8?$AA6?$AA?2?$AAc@ 00468118     LIBCMTD:vswprnc.obj
 0002:00008180       ??_C@_1EE@MPCHJFGP@?$AAs?$AAt?$AAr?$AAi?$AAn?$AAg?$AA?5?$AA?$CB?$AA?$DN?$AA?5?$AAN?$AAU?$AAL?$AAL?$AA?5?$AA?$CG?$AA?$CG?$AA?5?$AAs?$AAi?$AAz?$AAe?$AAI?$AAn?$AAW?$AAo?$AAr?$AAd?$AAs?$AA?5?$AA?$DO?$AA?5@ 00468180     LIBCMTD:vswprnc.obj
 0002:000081c4       ??_C@_1BO@OALHJLCI@?$AA_?$AAv?$AAs?$AAw?$AAp?$AAr?$AAi?$AAn?$AAt?$AAf?$AA_?$AAs?$AA_?$AAl?$AA?$AA@ 004681c4     LIBCMTD:vswprnc.obj
 0002:000081e4       ??_C@_1CA@BKFKMJFF@?$AA_?$AAv?$AAs?$AAn?$AAw?$AAp?$AAr?$AAi?$AAn?$AAt?$AAf?$AA_?$AAs?$AA_?$AAl?$AA?$AA@ 004681e4     LIBCMTD:vswprnc.obj
 0002:00008204       ??_C@_1O@NCBFODOE@?$AAx?$AAt?$AAo?$AAw?$AA_?$AAs?$AA?$AA@ 00468204     LIBCMTD:xtows.obj
 0002:00008214       ??_C@_1BC@HDEJCFPB@?$AAx?$AA6?$AA4?$AAt?$AAo?$AAw?$AA_?$AAs?$AA?$AA@ 00468214     LIBCMTD:xtows.obj
 0002:00008228       ??_C@_0BC@JEAENNKH@SystemFunction036?$AA@ 00468228     LIBCMTD:rand_s.obj
 0002:00008240       ??_C@_1GA@EBEDGGGB@?$AA?$CI?$AA?$CC?$AAr?$AAa?$AAn?$AAd?$AA_?$AAs?$AA?5?$AAi?$AAs?$AA?5?$AAn?$AAo?$AAt?$AA?5?$AAa?$AAv?$AAa?$AAi?$AAl?$AAa?$AAb?$AAl?$AAe?$AA?5?$AAo?$AAn?$AA?5?$AAt?$AAh?$AAi@ 00468240     LIBCMTD:rand_s.obj
 0002:000082a0       ??_C@_1O@IJGPPOGF@?$AAr?$AAa?$AAn?$AAd?$AA_?$AAs?$AA?$AA@ 004682a0     LIBCMTD:rand_s.obj
 0002:000082b0       ??_C@_1GA@HBGBBKCD@?$AAf?$AA?3?$AA?2?$AAd?$AAd?$AA?2?$AAv?$AAc?$AAt?$AAo?$AAo?$AAl?$AAs?$AA?2?$AAc?$AAr?$AAt?$AA_?$AAb?$AAl?$AAd?$AA?2?$AAs?$AAe?$AAl?$AAf?$AA_?$AAx?$AA8?$AA6?$AA?2?$AAc@ 004682b0     LIBCMTD:rand_s.obj
 0002:00008310       ??_C@_1CK@GFDNDKK@?$AA_?$AAR?$AAa?$AAn?$AAd?$AAo?$AAm?$AAV?$AAa?$AAl?$AAu?$AAe?$AA?5?$AA?$CB?$AA?$DN?$AA?5?$AAN?$AAU?$AAL?$AAL?$AA?$AA@ 00468310     LIBCMTD:rand_s.obj
 0002:00008340       ??_C@_1HO@MLMGPAFH@?$AA?$CI?$AA?$CC?$AAi?$AAn?$AAc?$AAo?$AAn?$AAs?$AAi?$AAs?$AAt?$AAe?$AAn?$AAt?$AA?5?$AAI?$AAO?$AAB?$AA?5?$AAf?$AAi?$AAe?$AAl?$AAd?$AAs?$AA?$CC?$AA?0?$AA?5?$AAs?$AAt?$AAr?$AAe@ 00468340     LIBCMTD:_flsbuf.obj
 0002:000083c0       ??_C@_1GC@GNCCMPNN@?$AAf?$AA?3?$AA?2?$AAd?$AAd?$AA?2?$AAv?$AAc?$AAt?$AAo?$AAo?$AAl?$AAs?$AA?2?$AAc?$AAr?$AAt?$AA_?$AAb?$AAl?$AAd?$AA?2?$AAs?$AAe?$AAl?$AAf?$AA_?$AAx?$AA8?$AA6?$AA?2?$AAc@ 004683c0     LIBCMTD:_flsbuf.obj
 0002:00008424       ??_C@_1BI@MFCLPIBM@?$AAs?$AAt?$AAr?$AA?5?$AA?$CB?$AA?$DN?$AA?5?$AAN?$AAU?$AAL?$AAL?$AA?$AA@ 00468424     LIBCMTD:_flsbuf.obj
 0002:0000843c       ??_C@_0DA@NFBEBPEE@f?3?2dd?2vctools?2crt_bld?2self_x86?2c@ 0046843c     LIBCMTD:woutput.obj
 0002:00008470       ??_C@_1EK@PNGFDECN@?$AA?$CI?$AA?$CC?$AA?8?$AAn?$AA?8?$AA?5?$AAf?$AAo?$AAr?$AAm?$AAa?$AAt?$AA?5?$AAs?$AAp?$AAe?$AAc?$AAi?$AAf?$AAi?$AAe?$AAr?$AA?5?$AAd?$AAi?$AAs?$AAa?$AAb?$AAl?$AAe?$AAd?$AA?$CC@ 00468470     LIBCMTD:woutput.obj
 0002:000084bc       ??_C@_1BG@BBCDFOMA@?$AA_?$AAw?$AAo?$AAu?$AAt?$AAp?$AAu?$AAt?$AA_?$AAl?$AA?$AA@ 004684bc     LIBCMTD:woutput.obj
 0002:000084d8       ??_C@_1GA@HHFOFBLN@?$AAf?$AA?3?$AA?2?$AAd?$AAd?$AA?2?$AAv?$AAc?$AAt?$AAo?$AAo?$AAl?$AAs?$AA?2?$AAc?$AAr?$AAt?$AA_?$AAb?$AAl?$AAd?$AA?2?$AAs?$AAe?$AAl?$AAf?$AA_?$AAx?$AA8?$AA6?$AA?2?$AAc@ 004684d8     LIBCMTD:woutput.obj
 0002:00008538       ??_C@_1CC@FADMNIL@?$AA?$CI?$AAs?$AAt?$AAr?$AAe?$AAa?$AAm?$AA?5?$AA?$CB?$AA?$DN?$AA?5?$AAN?$AAU?$AAL?$AAL?$AA?$CJ?$AA?$AA@ 00468538     LIBCMTD:woutput.obj
 0002:0000855c       ??_C@_1BK@EPLNBKAK@?$AA_?$AAv?$AAs?$AAw?$AAp?$AAr?$AAi?$AAn?$AAt?$AAf?$AA_?$AAl?$AA?$AA@ 0046855c     LIBCMTD:vswprint.obj
 0002:00008578       ??_C@_1CG@IMMIEPNA@?$AA_?$AAv?$AAs?$AAc?$AAw?$AAp?$AAr?$AAi?$AAn?$AAt?$AAf?$AA_?$AAh?$AAe?$AAl?$AAp?$AAe?$AAr?$AA?$AA@ 00468578     LIBCMTD:vswprint.obj
 0002:000085a0       ??_C@_1GE@GJCMHHMH@?$AAf?$AA?3?$AA?2?$AAd?$AAd?$AA?2?$AAv?$AAc?$AAt?$AAo?$AAo?$AAl?$AAs?$AA?2?$AAc?$AAr?$AAt?$AA_?$AAb?$AAl?$AAd?$AA?2?$AAs?$AAe?$AAl?$AAf?$AA_?$AAx?$AA8?$AA6?$AA?2?$AAc@ 004685a0     LIBCMTD:inittime.obj
 0002:00008608       ??_C@_1EE@FDHCFDHN@?$AAp?$AAl?$AAo?$AAc?$AAi?$AA?9?$AA?$DO?$AAl?$AAc?$AA_?$AAt?$AAi?$AAm?$AAe?$AA_?$AAc?$AAu?$AAr?$AAr?$AA?9?$AA?$DO?$AAr?$AAe?$AAf?$AAc?$AAo?$AAu?$AAn?$AAt?$AA?5?$AA?$DO?$AA?5@ 00468608     LIBCMTD:inittime.obj
 0002:0000864c       ??_C@_0DC@KICHHNFK@f?3?2dd?2vctools?2crt_bld?2self_x86?2c@ 0046864c     LIBCMTD:inittime.obj
 0002:00008680       ??_C@_1GC@EDJOCBCL@?$AAf?$AA?3?$AA?2?$AAd?$AAd?$AA?2?$AAv?$AAc?$AAt?$AAo?$AAo?$AAl?$AAs?$AA?2?$AAc?$AAr?$AAt?$AA_?$AAb?$AAl?$AAd?$AA?2?$AAs?$AAe?$AAl?$AAf?$AA_?$AAx?$AA8?$AA6?$AA?2?$AAc@ 00468680     LIBCMTD:initnum.obj
 0002:000086e4       ??_C@_1DM@IFKAINNE@?$AAp?$AAl?$AAo?$AAc?$AAi?$AA?9?$AA?$DO?$AAl?$AAc?$AAo?$AAn?$AAv?$AA_?$AAn?$AAu?$AAm?$AA_?$AAr?$AAe?$AAf?$AAc?$AAo?$AAu?$AAn?$AAt?$AA?5?$AA?$DO?$AA?5?$AA0?$AA?$AA@ 004686e4     LIBCMTD:initnum.obj
 0002:00008720       ??_C@_0DB@KKFMDHFI@f?3?2dd?2vctools?2crt_bld?2self_x86?2c@ 00468720     LIBCMTD:initnum.obj
 0002:00008758       ??_C@_1GC@IKADOFBJ@?$AAf?$AA?3?$AA?2?$AAd?$AAd?$AA?2?$AAv?$AAc?$AAt?$AAo?$AAo?$AAl?$AAs?$AA?2?$AAc?$AAr?$AAt?$AA_?$AAb?$AAl?$AAd?$AA?2?$AAs?$AAe?$AAl?$AAf?$AA_?$AAx?$AA8?$AA6?$AA?2?$AAc@ 00468758     LIBCMTD:initmon.obj
 0002:000087bc       ??_C@_1DM@GKAPAMDO@?$AAp?$AAl?$AAo?$AAc?$AAi?$AA?9?$AA?$DO?$AAl?$AAc?$AAo?$AAn?$AAv?$AA_?$AAm?$AAo?$AAn?$AA_?$AAr?$AAe?$AAf?$AAc?$AAo?$AAu?$AAn?$AAt?$AA?5?$AA?$DO?$AA?5?$AA0?$AA?$AA@ 004687bc     LIBCMTD:initmon.obj
 0002:000087f8       ??_C@_0DB@BECNGFDL@f?3?2dd?2vctools?2crt_bld?2self_x86?2c@ 004687f8     LIBCMTD:initmon.obj
 0002:00008830       ___newctype                00468830     LIBCMTD:ctype.obj
 0002:00008b30       __wctype                   00468b30     LIBCMTD:ctype.obj
 0002:00008d38       ___newclmap                00468d38     LIBCMTD:ctype.obj
 0002:00008eb8       ___newcumap                00468eb8     LIBCMTD:ctype.obj
 0002:00009038       ??_C@_0BK@CIDNPOGP@GetUserObjectInformationA?$AA@ 00469038     LIBCMTD:crtmbox.obj
 0002:00009054       ??_C@_0M@CHKKJDAI@MessageBoxA?$AA@ 00469054     LIBCMTD:crtmbox.obj
 0002:00009060       ??_C@_1O@CEDCILHN@?$AA?$CI?$AAn?$AAu?$AAl?$AAl?$AA?$CJ?$AA?$AA@ 00469060     LIBCMTD:output.obj
 0002:00009070       ??_C@_06OJHGLDPL@?$CInull?$CJ?$AA@ 00469070     LIBCMTD:output.obj
 0002:00009078       ___lookuptable             00469078     LIBCMTD:output.obj
 0002:000090d4       ??_C@_1CC@IFFHEMNF@?$AA?$CI?$AAc?$AAh?$AA?5?$AA?$CB?$AA?$DN?$AA?5?$AA_?$AAT?$AA?$CI?$AA?8?$AA?2?$AA0?$AA?8?$AA?$CJ?$AA?$CJ?$AA?$AA@ 004690d4     LIBCMTD:output.obj
 0002:000090f8       ??_C@_1BAA@ODEGEDCK@?$AA?$CI?$AA?5?$AA?$CI?$AA_?$AAS?$AAt?$AAr?$AAe?$AAa?$AAm?$AA?9?$AA?$DO?$AA_?$AAf?$AAl?$AAa?$AAg?$AA?5?$AA?$CG?$AA?5?$AA_?$AAI?$AAO?$AAS?$AAT?$AAR?$AAG?$AA?$CJ?$AA?5?$AA?$HM?$AA?$HM?$AA?5@ 004690f8     LIBCMTD:output.obj
 0002:000091f8       ??_C@_1BE@IONLIDNC@?$AA_?$AAo?$AAu?$AAt?$AAp?$AAu?$AAt?$AA_?$AAl?$AA?$AA@ 004691f8     LIBCMTD:output.obj
 0002:0000920c       ??_C@_1BI@IGILPKD@?$AA_?$AAv?$AAs?$AAp?$AAr?$AAi?$AAn?$AAt?$AAf?$AA_?$AAl?$AA?$AA@ 0046920c     LIBCMTD:vsprintf.obj
 0002:00009224       ??_C@_1CE@HMKDJHB@?$AA_?$AAv?$AAs?$AAc?$AAp?$AAr?$AAi?$AAn?$AAt?$AAf?$AA_?$AAh?$AAe?$AAl?$AAp?$AAe?$AAr?$AA?$AA@ 00469224     LIBCMTD:vsprintf.obj
 0002:00009248       ??_C@_07LCBHPJJN@LC_TIME?$AA@ 00469248     LIBCMTD:setlocal.obj
 0002:00009250       ??_C@_0L@DLHIECNL@LC_NUMERIC?$AA@ 00469250     LIBCMTD:setlocal.obj
 0002:0000925c       ??_C@_0M@MIENIKLA@LC_MONETARY?$AA@ 0046925c     LIBCMTD:setlocal.obj
 0002:00009268       ??_C@_08EADHIDAD@LC_CTYPE?$AA@ 00469268     LIBCMTD:setlocal.obj
 0002:00009274       ??_C@_0L@KFJHEKIK@LC_COLLATE?$AA@ 00469274     LIBCMTD:setlocal.obj
 0002:00009280       ??_C@_06NEFDFEKB@LC_ALL?$AA@ 00469280     LIBCMTD:setlocal.obj
 0002:00009288       ___lc_category             00469288     LIBCMTD:setlocal.obj
 0002:00009350       ??_C@_1CI@FGIONOJM@?$AA_?$AAc?$AAo?$AAn?$AAf?$AAi?$AAg?$AAt?$AAh?$AAr?$AAe?$AAa?$AAd?$AAl?$AAo?$AAc?$AAa?$AAl?$AAe?$AA?$AA@ 00469350     LIBCMTD:setlocal.obj
 0002:00009378       ??_C@_1GE@OLEIGPBJ@?$AAf?$AA?3?$AA?2?$AAd?$AAd?$AA?2?$AAv?$AAc?$AAt?$AAo?$AAo?$AAl?$AAs?$AA?2?$AAc?$AAr?$AAt?$AA_?$AAb?$AAl?$AAd?$AA?2?$AAs?$AAe?$AAl?$AAf?$AA_?$AAx?$AA8?$AA6?$AA?2?$AAc@ 00469378     LIBCMTD:setlocal.obj
 0002:000093e0       ??_C@_1GA@LDEGDKD@?$AA?$CI?$AA?$CC?$AAI?$AAn?$AAv?$AAa?$AAl?$AAi?$AAd?$AA?5?$AAp?$AAa?$AAr?$AAa?$AAm?$AAe?$AAt?$AAe?$AAr?$AA?5?$AAf?$AAo?$AAr?$AA?5?$AA_?$AAc?$AAo?$AAn?$AAf?$AAi?$AAg?$AAt@ 004693e0     LIBCMTD:setlocal.obj
 0002:00009440       ??_C@_0DC@JCPFNMID@f?3?2dd?2vctools?2crt_bld?2self_x86?2c@ 00469440     LIBCMTD:setlocal.obj
 0002:00009474       ??_C@_1BE@DBJGBOJC@?$AAs?$AAe?$AAt?$AAl?$AAo?$AAc?$AAa?$AAl?$AAe?$AA?$AA@ 00469474     LIBCMTD:setlocal.obj
 0002:00009488       ??_C@_1FG@OHLFEKMC@?$AAL?$AAC?$AA_?$AAM?$AAI?$AAN?$AA?5?$AA?$DM?$AA?$DN?$AA?5?$AA_?$AAc?$AAa?$AAt?$AAe?$AAg?$AAo?$AAr?$AAy?$AA?5?$AA?$CG?$AA?$CG?$AA?5?$AA_?$AAc?$AAa?$AAt?$AAe?$AAg?$AAo?$AAr?$AAy@ 00469488     LIBCMTD:setlocal.obj
 0002:000094e0       ??_C@_1IA@PFIKKKFB@?$AAs?$AAt?$AAr?$AAn?$AAc?$AAp?$AAy?$AA_?$AAs?$AA?$CI?$AAl?$AAc?$AAt?$AAe?$AAm?$AAp?$AA?0?$AA?5?$AA?$CI?$AAs?$AAi?$AAz?$AAe?$AAo?$AAf?$AA?$CI?$AAl?$AAc?$AAt?$AAe?$AAm?$AAp@ 004694e0     LIBCMTD:setlocal.obj
 0002:00009560       ??_C@_1CE@OFNHIOO@?$AA_?$AAs?$AAe?$AAt?$AAl?$AAo?$AAc?$AAa?$AAl?$AAe?$AA_?$AAn?$AAo?$AAl?$AAo?$AAc?$AAk?$AA?$AA@ 00469560     LIBCMTD:setlocal.obj
 0002:00009584       ??_C@_01ICJEACDI@?$DL?$AA@ 00469584     LIBCMTD:setlocal.obj
 0002:00009588       ??_C@_02BALPLPBG@?$DN?$DL?$AA@ 00469588     LIBCMTD:setlocal.obj
 0002:00009590       ??_C@_1GO@JALHLJEH@?$AAs?$AAt?$AAr?$AAc?$AAp?$AAy?$AA_?$AAs?$AA?$CI?$AAp?$AAc?$AAh?$AA?5?$AA?$CL?$AA?5?$AAs?$AAi?$AAz?$AAe?$AAo?$AAf?$AA?$CI?$AAi?$AAn?$AAt?$AA?$CJ?$AA?0?$AA?5?$AAc?$AAc?$AAh?$AA?5@ 00469590     LIBCMTD:setlocal.obj
 0002:00009600       ??_C@_1CG@IEFIICPK@?$AA_?$AAs?$AAe?$AAt?$AAl?$AAo?$AAc?$AAa?$AAl?$AAe?$AA_?$AAs?$AAe?$AAt?$AA_?$AAc?$AAa?$AAt?$AA?$AA@ 00469600     LIBCMTD:setlocal.obj
 0002:00009628       ??_C@_1DA@GDKKLCLM@?$AAs?$AAt?$AAr?$AAc?$AAa?$AAt?$AA_?$AAs?$AA?$CI?$AAp?$AAc?$AAh?$AA?0?$AA?5?$AAc?$AAc?$AAh?$AA?0?$AA?5?$AA?$CC?$AA?$DL?$AA?$CC?$AA?$CJ?$AA?$AA@ 00469628     LIBCMTD:setlocal.obj
 0002:00009658       ??_C@_1CG@NNFIJLDA@?$AA_?$AAs?$AAe?$AAt?$AAl?$AAo?$AAc?$AAa?$AAl?$AAe?$AA_?$AAg?$AAe?$AAt?$AA_?$AAa?$AAl?$AAl?$AA?$AA@ 00469658     LIBCMTD:setlocal.obj
 0002:00009680       ??_C@_1FA@MHAOOIBO@?$AAs?$AAt?$AAr?$AAc?$AAp?$AAy?$AA_?$AAs?$AA?$CI?$AAo?$AAu?$AAt?$AAp?$AAu?$AAt?$AA?0?$AA?5?$AAs?$AAi?$AAz?$AAe?$AAI?$AAn?$AAC?$AAh?$AAa?$AAr?$AAs?$AA?0?$AA?5?$AAc?$AAa@ 00469680     LIBCMTD:setlocal.obj
 0002:000096d0       ??_C@_1IA@ONNFOEDA@?$AAs?$AAt?$AAr?$AAn?$AAc?$AAp?$AAy?$AA_?$AAs?$AA?$CI?$AAc?$AAa?$AAc?$AAh?$AAe?$AAi?$AAn?$AA?0?$AA?5?$AAc?$AAa?$AAc?$AAh?$AAe?$AAi?$AAn?$AAS?$AAi?$AAz?$AAe?$AA?0?$AA?5@ 004696d0     LIBCMTD:setlocal.obj
 0002:00009750       ??_C@_01GFHCPBMG@C?$AA@    00469750     LIBCMTD:setlocal.obj
 0002:00009758       ??_C@_1EG@MOMHKOD@?$AAs?$AAt?$AAr?$AAc?$AAp?$AAy?$AA_?$AAs?$AA?$CI?$AAo?$AAu?$AAt?$AAp?$AAu?$AAt?$AA?0?$AA?5?$AAs?$AAi?$AAz?$AAe?$AAI?$AAn?$AAC?$AAh?$AAa?$AAr?$AAs?$AA?0?$AA?5?$AA?$CC?$AAC@ 00469758     LIBCMTD:setlocal.obj
 0002:000097a0       ??_C@_1BM@OIIBLEFG@?$AA_?$AAe?$AAx?$AAp?$AAa?$AAn?$AAd?$AAl?$AAo?$AAc?$AAa?$AAl?$AAe?$AA?$AA@ 004697a0     LIBCMTD:setlocal.obj
 0002:000097c0       ??_C@_1BGM@IJDLABMC@?$AAs?$AAt?$AAr?$AAc?$AAa?$AAt?$AA_?$AAs?$AA?$CI?$AAo?$AAu?$AAt?$AAs?$AAt?$AAr?$AA?0?$AA?5?$AAs?$AAi?$AAz?$AAe?$AAI?$AAn?$AAB?$AAy?$AAt?$AAe?$AAs?$AA?0?$AA?5?$AA?$CI?$AA?5@ 004697c0     LIBCMTD:setlocal.obj
 0002:0000992c       ??_C@_1BC@PIABMDIP@?$AA_?$AAs?$AAt?$AAr?$AAc?$AAa?$AAt?$AAs?$AA?$AA@ 0046992c     LIBCMTD:setlocal.obj
 0002:00009940       ??_C@_1MM@NOPMGFHF@?$AAs?$AAt?$AAr?$AAn?$AAc?$AAp?$AAy?$AA_?$AAs?$AA?$CI?$AAn?$AAa?$AAm?$AAe?$AAs?$AA?9?$AA?$DO?$AAs?$AAz?$AAC?$AAo?$AAd?$AAe?$AAP?$AAa?$AAg?$AAe?$AA?0?$AA?5?$AA?$CI?$AAs?$AAi@ 00469940     LIBCMTD:setlocal.obj
 0002:00009a10       ??_C@_1MG@PHNILIAG@?$AAs?$AAt?$AAr?$AAn?$AAc?$AAp?$AAy?$AA_?$AAs?$AA?$CI?$AAn?$AAa?$AAm?$AAe?$AAs?$AA?9?$AA?$DO?$AAs?$AAz?$AAC?$AAo?$AAu?$AAn?$AAt?$AAr?$AAy?$AA?0?$AA?5?$AA?$CI?$AAs?$AAi?$AAz@ 00469a10     LIBCMTD:setlocal.obj
 0002:00009ad8       ??_C@_1MM@BFEECMAF@?$AAs?$AAt?$AAr?$AAn?$AAc?$AAp?$AAy?$AA_?$AAs?$AA?$CI?$AAn?$AAa?$AAm?$AAe?$AAs?$AA?9?$AA?$DO?$AAs?$AAz?$AAL?$AAa?$AAn?$AAg?$AAu?$AAa?$AAg?$AAe?$AA?0?$AA?5?$AA?$CI?$AAs?$AAi@ 00469ad8     LIBCMTD:setlocal.obj
 0002:00009ba4       ??_C@_03EGDHDPFD@_?4?0?$AA@ 00469ba4     LIBCMTD:setlocal.obj
 0002:00009ba8       ??_C@_1NG@FMOPGKGG@?$AAs?$AAt?$AAr?$AAn?$AAc?$AAp?$AAy?$AA_?$AAs?$AA?$CI?$AAn?$AAa?$AAm?$AAe?$AAs?$AA?9?$AA?$DO?$AAs?$AAz?$AAC?$AAo?$AAd?$AAe?$AAP?$AAa?$AAg?$AAe?$AA?0?$AA?5?$AA?$CI?$AAs?$AAi@ 00469ba8     LIBCMTD:setlocal.obj
 0002:00009c80       ??_C@_1BK@CBMMLAGJ@?$AA_?$AA_?$AAl?$AAc?$AA_?$AAs?$AAt?$AAr?$AAt?$AAo?$AAl?$AAc?$AA?$AA@ 00469c80     LIBCMTD:setlocal.obj
 0002:00009c9c       ??_C@_01LFCBOECM@?4?$AA@   00469c9c     LIBCMTD:setlocal.obj
 0002:00009ca0       ??_C@_01IDAFKMJL@_?$AA@    00469ca0     LIBCMTD:setlocal.obj
 0002:00009ca8       ??_C@_1HC@IBDBLKCB@?$AAs?$AAt?$AAr?$AAc?$AAp?$AAy?$AA_?$AAs?$AA?$CI?$AAl?$AAo?$AAc?$AAa?$AAl?$AAe?$AA?0?$AA?5?$AAs?$AAi?$AAz?$AAe?$AAI?$AAn?$AAB?$AAy?$AAt?$AAe?$AAs?$AA?0?$AA?5?$AA?$CI?$AAc@ 00469ca8     LIBCMTD:setlocal.obj
 0002:00009d1c       ??_C@_1BK@FGDJDEPG@?$AA_?$AA_?$AAl?$AAc?$AA_?$AAl?$AAc?$AAt?$AAo?$AAs?$AAt?$AAr?$AA?$AA@ 00469d1c     LIBCMTD:setlocal.obj
 0002:00009d38       ___lookuptable_s           00469d38     LIBCMTD:outputs.obj
 0002:00009d98       ??_C@_1FK@LNCFKALM@?$AA?$CI?$AA?$CI?$AAs?$AAt?$AAa?$AAt?$AAe?$AA?5?$AA?$DN?$AA?$DN?$AA?5?$AAS?$AAT?$AA_?$AAN?$AAO?$AAR?$AAM?$AAA?$AAL?$AA?$CJ?$AA?5?$AA?$HM?$AA?$HM?$AA?5?$AA?$CI?$AAs?$AAt?$AAa?$AAt?$AAe?$AA?5@ 00469d98     LIBCMTD:outputs.obj
 0002:00009df8       ??_C@_1EE@DMAIGNBG@?$AA?$CI?$AA?$CC?$AAI?$AAn?$AAc?$AAo?$AAr?$AAr?$AAe?$AAc?$AAt?$AA?5?$AAf?$AAo?$AAr?$AAm?$AAa?$AAt?$AA?5?$AAs?$AAp?$AAe?$AAc?$AAi?$AAf?$AAi?$AAe?$AAr?$AA?$CC?$AA?0?$AA?5?$AA0@ 00469df8     LIBCMTD:outputs.obj
 0002:00009e3c       ??_C@_1BI@COFBLHCG@?$AA_?$AAo?$AAu?$AAt?$AAp?$AAu?$AAt?$AA_?$AAs?$AA_?$AAl?$AA?$AA@ 00469e3c     LIBCMTD:outputs.obj
 0002:00009e58       ??_C@_1FK@BCPANIEK@?$AA?$CI?$AA?$CC?$AAM?$AAi?$AAs?$AAs?$AAi?$AAn?$AAg?$AA?5?$AAp?$AAo?$AAs?$AAi?$AAt?$AAi?$AAo?$AAn?$AA?5?$AAi?$AAn?$AA?5?$AAt?$AAh?$AAe?$AA?5?$AAf?$AAo?$AAr?$AAm?$AAa?$AAt@ 00469e58     LIBCMTD:outputp.obj
 0002:00009eb8       ??_C@_1JC@OACKELNN@?$AA_?$AAt?$AAv?$AAa?$AAl?$AAi?$AAd?$AAa?$AAt?$AAe?$AA_?$AAp?$AAa?$AAr?$AAa?$AAm?$AA_?$AAr?$AAe?$AAu?$AAs?$AAe?$AA?$CI?$AA?$CG?$AAp?$AAo?$AAs?$AA_?$AAv?$AAa?$AAl?$AAu@ 00469eb8     LIBCMTD:outputp.obj
 0002:00009f50       ??_C@_1IK@NBGDDCBN@?$AA_?$AAt?$AAv?$AAa?$AAl?$AAi?$AAd?$AAa?$AAt?$AAe?$AA_?$AAp?$AAa?$AAr?$AAa?$AAm?$AA_?$AAr?$AAe?$AAu?$AAs?$AAe?$AA?$CI?$AA?$CG?$AAp?$AAo?$AAs?$AA_?$AAv?$AAa?$AAl?$AAu@ 00469f50     LIBCMTD:outputp.obj
 0002:00009fdc       ??_C@_1DG@GOHGNKHE@?$AAp?$AAa?$AAs?$AAs?$AA?5?$AA?$DN?$AA?$DN?$AA?5?$AAF?$AAO?$AAR?$AAM?$AAA?$AAT?$AA_?$AAO?$AAU?$AAT?$AAP?$AAU?$AAT?$AA_?$AAP?$AAA?$AAS?$AAS?$AA?$AA@ 00469fdc     LIBCMTD:outputp.obj
 0002:0000a018       ??_C@_1IM@DNGHAPLB@?$AA_?$AAt?$AAv?$AAa?$AAl?$AAi?$AAd?$AAa?$AAt?$AAe?$AA_?$AAp?$AAa?$AAr?$AAa?$AAm?$AA_?$AAr?$AAe?$AAu?$AAs?$AAe?$AA?$CI?$AA?$CG?$AAp?$AAo?$AAs?$AA_?$AAv?$AAa?$AAl?$AAu@ 0046a018     LIBCMTD:outputp.obj
 0002:0000a0a8       ??_C@_1IG@HJIMKDHC@?$AA_?$AAt?$AAv?$AAa?$AAl?$AAi?$AAd?$AAa?$AAt?$AAe?$AA_?$AAp?$AAa?$AAr?$AAa?$AAm?$AA_?$AAr?$AAe?$AAu?$AAs?$AAe?$AA?$CI?$AA?$CG?$AAp?$AAo?$AAs?$AA_?$AAv?$AAa?$AAl?$AAu@ 0046a0a8     LIBCMTD:outputp.obj
 0002:0000a130       ??_C@_1IG@FDCPLALG@?$AA_?$AAt?$AAv?$AAa?$AAl?$AAi?$AAd?$AAa?$AAt?$AAe?$AA_?$AAp?$AAa?$AAr?$AAa?$AAm?$AA_?$AAr?$AAe?$AAu?$AAs?$AAe?$AA?$CI?$AA?$CG?$AAp?$AAo?$AAs?$AA_?$AAv?$AAa?$AAl?$AAu@ 0046a130     LIBCMTD:outputp.obj
 0002:0000a1b8       ??_C@_1IK@MHEDJAMK@?$AA_?$AAt?$AAv?$AAa?$AAl?$AAi?$AAd?$AAa?$AAt?$AAe?$AA_?$AAp?$AAa?$AAr?$AAa?$AAm?$AA_?$AAr?$AAe?$AAu?$AAs?$AAe?$AA?$CI?$AA?$CG?$AAp?$AAo?$AAs?$AA_?$AAv?$AAa?$AAl?$AAu@ 0046a1b8     LIBCMTD:outputp.obj
 0002:0000a248       ??_C@_1EM@BNPHBBIA@?$AA?$CI?$AA?$CI?$AAt?$AAy?$AAp?$AAe?$AA_?$AAp?$AAo?$AAs?$AA?$DO?$AA?$DN?$AA0?$AA?$CJ?$AA?5?$AA?$CG?$AA?$CG?$AA?5?$AA?$CI?$AAt?$AAy?$AAp?$AAe?$AA_?$AAp?$AAo?$AAs?$AA?$DM?$AA_?$AAA?$AAR?$AAG@ 0046a248     LIBCMTD:outputp.obj
 0002:0000a298       ??_C@_1IK@EIEPDKHJ@?$AA_?$AAt?$AAv?$AAa?$AAl?$AAi?$AAd?$AAa?$AAt?$AAe?$AA_?$AAp?$AAa?$AAr?$AAa?$AAm?$AA_?$AAr?$AAe?$AAu?$AAs?$AAe?$AA?$CI?$AA?$CG?$AAp?$AAo?$AAs?$AA_?$AAv?$AAa?$AAl?$AAu@ 0046a298     LIBCMTD:outputp.obj
 0002:0000a328       ??_C@_1JG@JBJBOCFB@?$AA?$CI?$AA?$CI?$AAp?$AAr?$AAe?$AAc?$AAi?$AAs?$AA_?$AAp?$AAo?$AAs?$AA?5?$AA?$DO?$AA?$DN?$AA?5?$AA0?$AA?$CJ?$AA?5?$AA?$CG?$AA?$CG?$AA?5?$AA?$CI?$AA?$CK?$AAe?$AAn?$AAd?$AA_?$AAp?$AAo?$AAs?$AA?5@ 0046a328     LIBCMTD:outputp.obj
 0002:0000a3c0       ??_C@_1II@PIPIMLPF@?$AA_?$AAt?$AAv?$AAa?$AAl?$AAi?$AAd?$AAa?$AAt?$AAe?$AA_?$AAp?$AAa?$AAr?$AAa?$AAm?$AA_?$AAr?$AAe?$AAu?$AAs?$AAe?$AA?$CI?$AA?$CG?$AAp?$AAo?$AAs?$AA_?$AAv?$AAa?$AAl?$AAu@ 0046a3c0     LIBCMTD:outputp.obj
 0002:0000a448       ??_C@_1JE@NMBHOLFI@?$AA?$CI?$AA?$CI?$AAw?$AAi?$AAd?$AAt?$AAh?$AA_?$AAp?$AAo?$AAs?$AA?5?$AA?$DO?$AA?$DN?$AA?5?$AA0?$AA?$CJ?$AA?5?$AA?$CG?$AA?$CG?$AA?5?$AA?$CI?$AA?$CK?$AAe?$AAn?$AAd?$AA_?$AAp?$AAo?$AAs?$AA?5?$AA?$DN@ 0046a448     LIBCMTD:outputp.obj
 0002:0000a4e0       ??_C@_1JC@PFJNKEIO@?$AA?$CI?$AA?$CI?$AAt?$AAy?$AAp?$AAe?$AA_?$AAp?$AAo?$AAs?$AA?5?$AA?$DO?$AA?$DN?$AA?5?$AA0?$AA?$CJ?$AA?5?$AA?$CG?$AA?$CG?$AA?5?$AA?$CI?$AA?$CK?$AAe?$AAn?$AAd?$AA_?$AAp?$AAo?$AAs?$AA?5?$AA?$DN?$AA?$DN@ 0046a4e0     LIBCMTD:outputp.obj
 0002:0000a574       ??_C@_1BI@KANOLAMF@?$AA_?$AAo?$AAu?$AAt?$AAp?$AAu?$AAt?$AA_?$AAp?$AA_?$AAl?$AA?$AA@ 0046a574     LIBCMTD:outputp.obj
 0002:0000a58c       ??_C@_1BK@ONMFGLDB@?$AA_?$AAw?$AAo?$AAu?$AAt?$AAp?$AAu?$AAt?$AA_?$AAs?$AA_?$AAl?$AA?$AA@ 0046a58c     LIBCMTD:woutputs.obj
 0002:0000a5a8       ??_C@_1BK@GDEKGMNC@?$AA_?$AAw?$AAo?$AAu?$AAt?$AAp?$AAu?$AAt?$AA_?$AAp?$AA_?$AAl?$AA?$AA@ 0046a5a8     LIBCMTD:woutputp.obj
 0002:0000a5c8       ??_C@_1JE@ECKHFIFP@?$AA?$CI?$AA?$CC?$AAI?$AAn?$AAv?$AAa?$AAl?$AAi?$AAd?$AA?5?$AAf?$AAi?$AAl?$AAe?$AA?5?$AAd?$AAe?$AAs?$AAc?$AAr?$AAi?$AAp?$AAt?$AAo?$AAr?$AA?4?$AA?5?$AAF?$AAi?$AAl?$AAe?$AA?5@ 0046a5c8     LIBCMTD:lseeki64.obj
 0002:0000a65c       ??_C@_1CM@OKGMMMDH@?$AA?$CI?$AA_?$AAo?$AAs?$AAf?$AAi?$AAl?$AAe?$AA?$CI?$AAf?$AAh?$AA?$CJ?$AA?5?$AA?$CG?$AA?5?$AAF?$AAO?$AAP?$AAE?$AAN?$AA?$CJ?$AA?$AA@ 0046a65c     LIBCMTD:lseeki64.obj
 0002:0000a688       ??_C@_1BE@KHFBJMNM@?$AA_?$AAl?$AAs?$AAe?$AAe?$AAk?$AAi?$AA6?$AA4?$AA?$AA@ 0046a688     LIBCMTD:lseeki64.obj
 0002:0000a6a0       ??_C@_1GE@MINKPNPH@?$AAf?$AA?3?$AA?2?$AAd?$AAd?$AA?2?$AAv?$AAc?$AAt?$AAo?$AAo?$AAl?$AAs?$AA?2?$AAc?$AAr?$AAt?$AA_?$AAb?$AAl?$AAd?$AA?2?$AAs?$AAe?$AAl?$AAf?$AA_?$AAx?$AA8?$AA6?$AA?2?$AAc@ 0046a6a0     LIBCMTD:lseeki64.obj
 0002:0000a708       ??_C@_1FO@LPCLHKGE@?$AA?$CI?$AAf?$AAh?$AA?5?$AA?$DO?$AA?$DN?$AA?5?$AA0?$AA?5?$AA?$CG?$AA?$CG?$AA?5?$AA?$CI?$AAu?$AAn?$AAs?$AAi?$AAg?$AAn?$AAe?$AAd?$AA?$CJ?$AAf?$AAh?$AA?5?$AA?$DM?$AA?5?$AA?$CI?$AAu?$AAn?$AAs?$AAi@ 0046a708     LIBCMTD:lseeki64.obj
 0002:0000a768       ??_C@_1O@KOFKDHPL@?$AA_?$AAw?$AAr?$AAi?$AAt?$AAe?$AA?$AA@ 0046a768     LIBCMTD:write.obj
 0002:0000a778       ??_C@_1FO@EPLDPDDL@?$AAf?$AA?3?$AA?2?$AAd?$AAd?$AA?2?$AAv?$AAc?$AAt?$AAo?$AAo?$AAl?$AAs?$AA?2?$AAc?$AAr?$AAt?$AA_?$AAb?$AAl?$AAd?$AA?2?$AAs?$AAe?$AAl?$AAf?$AA_?$AAx?$AA8?$AA6?$AA?2?$AAc@ 0046a778     LIBCMTD:write.obj
 0002:0000a7d8       ??_C@_1DI@CNMHHHLG@?$AAi?$AAs?$AAl?$AAe?$AAa?$AAd?$AAb?$AAy?$AAt?$AAe?$AA?$CI?$AA_?$AAd?$AAb?$AAc?$AAs?$AAB?$AAu?$AAf?$AAf?$AAe?$AAr?$AA?$CI?$AAf?$AAh?$AA?$CJ?$AA?$CJ?$AA?$AA@ 0046a7d8     LIBCMTD:write.obj
 0002:0000a810       ??_C@_1CC@EEOLPHGO@?$AA?$CI?$AA?$CI?$AAc?$AAn?$AAt?$AA?5?$AA?$CG?$AA?5?$AA1?$AA?$CJ?$AA?5?$AA?$DN?$AA?$DN?$AA?5?$AA0?$AA?$CJ?$AA?$AA@ 0046a810     LIBCMTD:write.obj
 0002:0000a834       ??_C@_1BM@NCANHCIP@?$AA_?$AAw?$AAr?$AAi?$AAt?$AAe?$AA_?$AAn?$AAo?$AAl?$AAo?$AAc?$AAk?$AA?$AA@ 0046a834     LIBCMTD:write.obj
 0002:0000a850       ??_C@_1BM@KFJLMBPG@?$AA?$CI?$AAb?$AAu?$AAf?$AA?5?$AA?$CB?$AA?$DN?$AA?5?$AAN?$AAU?$AAL?$AAL?$AA?$CJ?$AA?$AA@ 0046a850     LIBCMTD:write.obj
 0002:0000a86c       ??_C@_0DB@JEHOCBEJ@f?3?2dd?2vctools?2crt_bld?2self_x86?2c@ 0046a86c     LIBCMTD:_getbuf.obj
 0002:0000a8a0       ??_C@_1GC@DKMGNNCC@?$AAf?$AA?3?$AA?2?$AAd?$AAd?$AA?2?$AAv?$AAc?$AAt?$AAo?$AAo?$AAl?$AAs?$AA?2?$AAc?$AAr?$AAt?$AA_?$AAb?$AAl?$AAd?$AA?2?$AAs?$AAe?$AAl?$AAf?$AA_?$AAx?$AA8?$AA6?$AA?2?$AAc@ 0046a8a0     LIBCMTD:_getbuf.obj
 0002:0000a904       ??_C@_1BA@LEBDGIHM@?$AA_?$AAi?$AAs?$AAa?$AAt?$AAt?$AAy?$AA?$AA@ 0046a904     LIBCMTD:isatty.obj
 0002:0000a918       ??_C@_1GA@LPGDJDEN@?$AAf?$AA?3?$AA?2?$AAd?$AAd?$AA?2?$AAv?$AAc?$AAt?$AAo?$AAo?$AAl?$AAs?$AA?2?$AAc?$AAr?$AAt?$AA_?$AAb?$AAl?$AAd?$AA?2?$AAs?$AAe?$AAl?$AAf?$AA_?$AAx?$AA8?$AA6?$AA?2?$AAc@ 0046a918     LIBCMTD:isatty.obj
 0002:0000a978       ??_C@_0CP@BNKDODJJ@f?3?2dd?2vctools?2crt_bld?2self_x86?2c@ 0046a978     LIBCMTD:_file.obj
 0002:0000a9a8       ??_C@_1BA@JGHIEKKM@?$AA_?$AAf?$AAi?$AAl?$AAe?$AAn?$AAo?$AA?$AA@ 0046a9a8     LIBCMTD:fileno.obj
 0002:0000a9b8       ??_C@_1GA@PBJHELNC@?$AAf?$AA?3?$AA?2?$AAd?$AAd?$AA?2?$AAv?$AAc?$AAt?$AAo?$AAo?$AAl?$AAs?$AA?2?$AAc?$AAr?$AAt?$AA_?$AAb?$AAl?$AAd?$AA?2?$AAs?$AAe?$AAl?$AAf?$AA_?$AAx?$AA8?$AA6?$AA?2?$AAc@ 0046a9b8     LIBCMTD:fileno.obj
 0002:0000aa18       ??_C@_1O@GKDHFACN@?$AAp?$AAr?$AAi?$AAn?$AAt?$AAf?$AA?$AA@ 0046aa18     LIBCMTD:printf.obj
 0002:0000aa28       ??_C@_1GA@LHEGHOAF@?$AAf?$AA?3?$AA?2?$AAd?$AAd?$AA?2?$AAv?$AAc?$AAt?$AAo?$AAo?$AAl?$AAs?$AA?2?$AAc?$AAr?$AAt?$AA_?$AAb?$AAl?$AAd?$AA?2?$AAs?$AAe?$AAl?$AAf?$AA_?$AAx?$AA8?$AA6?$AA?2?$AAc@ 0046aa28     LIBCMTD:printf.obj
 0002:0000aa88       ??_C@_1GA@GFFDGGFH@?$AAf?$AA?3?$AA?2?$AAd?$AAd?$AA?2?$AAv?$AAc?$AAt?$AAo?$AAo?$AAl?$AAs?$AA?2?$AAc?$AAr?$AAt?$AA_?$AAb?$AAl?$AAd?$AA?2?$AAs?$AAe?$AAl?$AAf?$AA_?$AAx?$AA8?$AA6?$AA?2?$AAc@ 0046aa88     LIBCMTD:mbtowc.obj
 0002:0000aae8       ??_C@_1NC@EINCOKCO@?$AA_?$AAl?$AAo?$AAc?$AA_?$AAu?$AAp?$AAd?$AAa?$AAt?$AAe?$AA?4?$AAG?$AAe?$AAt?$AAL?$AAo?$AAc?$AAa?$AAl?$AAe?$AAT?$AA?$CI?$AA?$CJ?$AA?9?$AA?$DO?$AAl?$AAo?$AAc?$AAi?$AAn?$AAf@ 0046aae8     LIBCMTD:mbtowc.obj
 0002:0000abbc       ??_C@_1O@HJNPHHHB@?$AAf?$AAp?$AAu?$AAt?$AAw?$AAc?$AA?$AA@ 0046abbc     LIBCMTD:fputwc.obj
 0002:0000abd0       ??_C@_1GA@BJIGKGEA@?$AAf?$AA?3?$AA?2?$AAd?$AAd?$AA?2?$AAv?$AAc?$AAt?$AAo?$AAo?$AAl?$AAs?$AA?2?$AAc?$AAr?$AAt?$AA_?$AAb?$AAl?$AAd?$AA?2?$AAs?$AAe?$AAl?$AAf?$AA_?$AAx?$AA8?$AA6?$AA?2?$AAc@ 0046abd0     LIBCMTD:fputwc.obj
 0002:0000ac30       ??_C@_1BM@JMKHIAHP@?$AA?$CI?$AAs?$AAt?$AAr?$AA?5?$AA?$CB?$AA?$DN?$AA?5?$AAN?$AAU?$AAL?$AAL?$AA?$CJ?$AA?$AA@ 0046ac30     LIBCMTD:fputwc.obj
 0002:0000ac50       ??_C@_1FE@CEHLKAHD@?$AAi?$AAb?$AAa?$AAs?$AAe?$AA?5?$AA?$DN?$AA?$DN?$AA?5?$AA0?$AA?5?$AA?$HM?$AA?$HM?$AA?5?$AA?$CI?$AA2?$AA?5?$AA?$DM?$AA?$DN?$AA?5?$AAi?$AAb?$AAa?$AAs?$AAe?$AA?5?$AA?$CG?$AA?$CG?$AA?5?$AAi?$AAb?$AAa@ 0046ac50     LIBCMTD:strtol.obj
 0002:0000aca4       ??_C@_1BA@LOLAMAJG@?$AAs?$AAt?$AAr?$AAt?$AAo?$AAx?$AAl?$AA?$AA@ 0046aca4     LIBCMTD:strtol.obj
 0002:0000acb8       ??_C@_1GA@IPHKKOEI@?$AAf?$AA?3?$AA?2?$AAd?$AAd?$AA?2?$AAv?$AAc?$AAt?$AAo?$AAo?$AAl?$AAs?$AA?2?$AAc?$AAr?$AAt?$AA_?$AAb?$AAl?$AAd?$AA?2?$AAs?$AAe?$AAl?$AAf?$AA_?$AAx?$AA8?$AA6?$AA?2?$AAc@ 0046acb8     LIBCMTD:strtol.obj
 0002:0000ad18       ??_C@_1BK@LAOAACLJ@?$AAn?$AAp?$AAt?$AAr?$AA?5?$AA?$CB?$AA?$DN?$AA?5?$AAN?$AAU?$AAL?$AAL?$AA?$AA@ 0046ad18     LIBCMTD:strtol.obj
 0002:0000ad34       ??_C@_1BA@BMMDEPNE@?$AAs?$AAt?$AAr?$AAt?$AAo?$AAx?$AAq?$AA?$AA@ 0046ad34     LIBCMTD:strtoq.obj
 0002:0000ad48       ??_C@_1GA@GIMEIKLC@?$AAf?$AA?3?$AA?2?$AAd?$AAd?$AA?2?$AAv?$AAc?$AAt?$AAo?$AAo?$AAl?$AAs?$AA?2?$AAc?$AAr?$AAt?$AA_?$AAb?$AAl?$AAd?$AA?2?$AAs?$AAe?$AAl?$AAf?$AA_?$AAx?$AA8?$AA6?$AA?2?$AAc@ 0046ad48     LIBCMTD:strtoq.obj
 0002:0000ada8       ??_C@_1CA@CBMNPEO@?$AAs?$AAi?$AAz?$AAe?$AAI?$AAn?$AAB?$AAy?$AAt?$AAe?$AAs?$AA?5?$AA?$DO?$AA?5?$AA0?$AA?$AA@ 0046ada8     LIBCMTD:wctomb.obj
 0002:0000adc8       ??_C@_1BI@IEADNOHF@?$AA_?$AAw?$AAc?$AAt?$AAo?$AAm?$AAb?$AA_?$AAs?$AA_?$AAl?$AA?$AA@ 0046adc8     LIBCMTD:wctomb.obj
 0002:0000ade0       ??_C@_1GA@LDLHPOO@?$AAf?$AA?3?$AA?2?$AAd?$AAd?$AA?2?$AAv?$AAc?$AAt?$AAo?$AAo?$AAl?$AAs?$AA?2?$AAc?$AAr?$AAt?$AA_?$AAb?$AAl?$AAd?$AA?2?$AAs?$AAe?$AAl?$AAf?$AA_?$AAx?$AA8?$AA6?$AA?2?$AAc@ 0046ade0     LIBCMTD:wctomb.obj
 0002:0000ae40       ??_C@_1CO@HFMIILNF@?$AAs?$AAi?$AAz?$AAe?$AAI?$AAn?$AAB?$AAy?$AAt?$AAe?$AAs?$AA?5?$AA?$DM?$AA?$DN?$AA?5?$AAI?$AAN?$AAT?$AA_?$AAM?$AAA?$AAX?$AA?$AA@ 0046ae40     LIBCMTD:wctomb.obj
 0002:0000ae70       ??_C@_1DG@NMBGBDM@?$AAp?$AAl?$AAo?$AAc?$AAi?$AA?9?$AA?$DO?$AAc?$AAt?$AAy?$AAp?$AAe?$AA1?$AA_?$AAr?$AAe?$AAf?$AAc?$AAo?$AAu?$AAn?$AAt?$AA?5?$AA?$DO?$AA?5?$AA0?$AA?$AA@ 0046ae70     LIBCMTD:initctyp.obj
 0002:0000aea8       ??_C@_1GE@OCPKBDKE@?$AAf?$AA?3?$AA?2?$AAd?$AAd?$AA?2?$AAv?$AAc?$AAt?$AAo?$AAo?$AAl?$AAs?$AA?2?$AAc?$AAr?$AAt?$AA_?$AAb?$AAl?$AAd?$AA?2?$AAs?$AAe?$AAl?$AAf?$AA_?$AAx?$AA8?$AA6?$AA?2?$AAc@ 0046aea8     LIBCMTD:initctyp.obj
 0002:0000af0c       ??_C@_0DC@EHLBFILA@f?3?2dd?2vctools?2crt_bld?2self_x86?2c@ 0046af0c     LIBCMTD:initctyp.obj
 0002:0000af40       ??_C@_0O@FMJNFNKE@united?9states?$AA@ 0046af40     LIBCMTD:getqloc.obj
 0002:0000af50       ??_C@_0P@NDHFFKCA@united?9kingdom?$AA@ 0046af50     LIBCMTD:getqloc.obj
 0002:0000af60       ??_C@_0BC@HHDADLGF@trinidad?5?$CG?5tobago?$AA@ 0046af60     LIBCMTD:getqloc.obj
 0002:0000af74       ??_C@_0M@IOAEBDAC@south?9korea?$AA@ 0046af74     LIBCMTD:getqloc.obj
 0002:0000af80       ??_C@_0N@FIELFKIJ@south?9africa?$AA@ 0046af80     LIBCMTD:getqloc.obj
 0002:0000af90       ??_C@_0M@OPNDHCMC@south?5korea?$AA@ 0046af90     LIBCMTD:getqloc.obj
 0002:0000af9c       ??_C@_0N@MDEOEPFI@south?5africa?$AA@ 0046af9c     LIBCMTD:getqloc.obj
 0002:0000afac       ??_C@_06FKAPCJLB@slovak?$AA@ 0046afac     LIBCMTD:getqloc.obj
 0002:0000afb4       ??_C@_0M@EFJANOAL@puerto?9rico?$AA@ 0046afb4     LIBCMTD:getqloc.obj
 0002:0000afc0       ??_C@_08PGOJKDAI@pr?9china?$AA@ 0046afc0     LIBCMTD:getqloc.obj
 0002:0000afcc       ??_C@_08JHDOMCMI@pr?5china?$AA@ 0046afcc     LIBCMTD:getqloc.obj
 0002:0000afd8       ??_C@_02JHCHFBLL@nz?$AA@   0046afd8     LIBCMTD:getqloc.obj
 0002:0000afdc       ??_C@_0M@LINHDHKP@new?9zealand?$AA@ 0046afdc     LIBCMTD:getqloc.obj
 0002:0000afe8       ??_C@_09IIIPPBDB@hong?9kong?$AA@ 0046afe8     LIBCMTD:getqloc.obj
 0002:0000aff4       ??_C@_07HJLCKBG@holland?$AA@ 0046aff4     LIBCMTD:getqloc.obj
 0002:0000affc       ??_C@_0O@LEHGMHAG@great?5britain?$AA@ 0046affc     LIBCMTD:getqloc.obj
 0002:0000b00c       ??_C@_07FACOMELA@england?$AA@ 0046b00c     LIBCMTD:getqloc.obj
 0002:0000b014       ??_C@_05JIHCEICB@czech?$AA@ 0046b014     LIBCMTD:getqloc.obj
 0002:0000b01c       ??_C@_05BBJOBLGB@china?$AA@ 0046b01c     LIBCMTD:getqloc.obj
 0002:0000b024       ??_C@_07GPKPHICP@britain?$AA@ 0046b024     LIBCMTD:getqloc.obj
 0002:0000b02c       ??_C@_07MHIPBHMG@america?$AA@ 0046b02c     LIBCMTD:getqloc.obj
 0002:0000b034       ??_C@_03KIALPMKC@usa?$AA@  0046b034     LIBCMTD:getqloc.obj
 0002:0000b038       ??_C@_02FGJGKGGD@us?$AA@   0046b038     LIBCMTD:getqloc.obj
 0002:0000b03c       ??_C@_02NEINDODK@uk?$AA@   0046b03c     LIBCMTD:getqloc.obj
 0002:0000b040       ??_C@_05JMPCFJFJ@swiss?$AA@ 0046b040     LIBCMTD:getqloc.obj
 0002:0000b048       ??_C@_0BA@HLOCPIOD@swedish?9finland?$AA@ 0046b048     LIBCMTD:getqloc.obj
 0002:0000b058       ??_C@_0BC@PKCNIABK@spanish?9venezuela?$AA@ 0046b058     LIBCMTD:getqloc.obj
 0002:0000b06c       ??_C@_0BA@GBHHMIJI@spanish?9uruguay?$AA@ 0046b06c     LIBCMTD:getqloc.obj
 0002:0000b07c       ??_C@_0BE@BHDOHPMC@spanish?9puerto?5rico?$AA@ 0046b07c     LIBCMTD:getqloc.obj
 0002:0000b090       ??_C@_0N@KMOIDGGN@spanish?9peru?$AA@ 0046b090     LIBCMTD:getqloc.obj
 0002:0000b0a0       ??_C@_0BB@HMHLPGPH@spanish?9paraguay?$AA@ 0046b0a0     LIBCMTD:getqloc.obj
 0002:0000b0b4       ??_C@_0P@MCPKNGFD@spanish?9panama?$AA@ 0046b0b4     LIBCMTD:getqloc.obj
 0002:0000b0c4       ??_C@_0BC@IHOHGAIL@spanish?9nicaragua?$AA@ 0046b0c4     LIBCMTD:getqloc.obj
 0002:0000b0d8       ??_C@_0P@KLMJDNFJ@spanish?9modern?$AA@ 0046b0d8     LIBCMTD:getqloc.obj
 0002:0000b0e8       ??_C@_0BA@BPAPGBCM@spanish?9mexican?$AA@ 0046b0e8     LIBCMTD:getqloc.obj
 0002:0000b0f8       ??_C@_0BB@PDECHHHE@spanish?9honduras?$AA@ 0046b0f8     LIBCMTD:getqloc.obj
 0002:0000b10c       ??_C@_0BC@KLHKFGDB@spanish?9guatemala?$AA@ 0046b10c     LIBCMTD:getqloc.obj
 0002:0000b120       ??_C@_0BE@MFOOKJAI@spanish?9el?5salvador?$AA@ 0046b120     LIBCMTD:getqloc.obj
 0002:0000b134       ??_C@_0BA@FCOKFPFC@spanish?9ecuador?$AA@ 0046b134     LIBCMTD:getqloc.obj
 0002:0000b144       ??_C@_0BL@PLMGIMOO@spanish?9dominican?5republic?$AA@ 0046b144     LIBCMTD:getqloc.obj
 0002:0000b160       ??_C@_0BD@HLGDNMHB@spanish?9costa?5rica?$AA@ 0046b160     LIBCMTD:getqloc.obj
 0002:0000b174       ??_C@_0BB@PKCBKCPE@spanish?9colombia?$AA@ 0046b174     LIBCMTD:getqloc.obj
 0002:0000b188       ??_C@_0O@MCBIJGNE@spanish?9chile?$AA@ 0046b188     LIBCMTD:getqloc.obj
 0002:0000b198       ??_C@_0BA@BEFEIGJJ@spanish?9bolivia?$AA@ 0046b198     LIBCMTD:getqloc.obj
 0002:0000b1a8       ??_C@_0BC@EMECMPD@spanish?9argentina?$AA@ 0046b1a8     LIBCMTD:getqloc.obj
 0002:0000b1bc       ??_C@_0BF@EALFLENP@portuguese?9brazilian?$AA@ 0046b1bc     LIBCMTD:getqloc.obj
 0002:0000b1d4       ??_C@_0BC@HBLEBLNN@norwegian?9nynorsk?$AA@ 0046b1d4     LIBCMTD:getqloc.obj
 0002:0000b1e8       ??_C@_0BB@HMACDDCK@norwegian?9bokmal?$AA@ 0046b1e8     LIBCMTD:getqloc.obj
 0002:0000b1fc       ??_C@_09BAFFPPHE@norwegian?$AA@ 0046b1fc     LIBCMTD:getqloc.obj
 0002:0000b208       ??_C@_0O@EAJFJDFG@italian?9swiss?$AA@ 0046b208     LIBCMTD:getqloc.obj
 0002:0000b218       ??_C@_0O@CNOMPGD@irish?9english?$AA@ 0046b218     LIBCMTD:getqloc.obj
 0002:0000b228       ??_C@_0N@EDHBGCKG@german?9swiss?$AA@ 0046b228     LIBCMTD:getqloc.obj
 0002:0000b238       ??_C@_0BC@JACMHNBP@german?9luxembourg?$AA@ 0046b238     LIBCMTD:getqloc.obj
 0002:0000b24c       ??_C@_0BE@HBGMGFEG@german?9lichtenstein?$AA@ 0046b24c     LIBCMTD:getqloc.obj
 0002:0000b260       ??_C@_0BA@HKKBIBKL@german?9austrian?$AA@ 0046b260     LIBCMTD:getqloc.obj
 0002:0000b270       ??_C@_0N@GCAEPEBK@french?9swiss?$AA@ 0046b270     LIBCMTD:getqloc.obj
 0002:0000b280       ??_C@_0BC@DJFJJCK@french?9luxembourg?$AA@ 0046b280     LIBCMTD:getqloc.obj
 0002:0000b294       ??_C@_0BA@NNCEDFIC@french?9canadian?$AA@ 0046b294     LIBCMTD:getqloc.obj
 0002:0000b2a4       ??_C@_0P@CMPOCLM@french?9belgian?$AA@ 0046b2a4     LIBCMTD:getqloc.obj
 0002:0000b2b4       ??_C@_0M@GHHDJOK@english?9usa?$AA@ 0046b2b4     LIBCMTD:getqloc.obj
 0002:0000b2c0       ??_C@_0L@PLDJKEIL@english?9us?$AA@ 0046b2c0     LIBCMTD:getqloc.obj
 0002:0000b2cc       ??_C@_0L@HJCCDMNC@english?9uk?$AA@ 0046b2cc     LIBCMTD:getqloc.obj
 0002:0000b2d8       ??_C@_0BK@CKLIAGJB@english?9trinidad?5y?5tobago?$AA@ 0046b2d8     LIBCMTD:getqloc.obj
 0002:0000b2f4       ??_C@_0BF@JMJMGNNF@english?9south?5africa?$AA@ 0046b2f4     LIBCMTD:getqloc.obj
 0002:0000b30c       ??_C@_0L@DKIIFDFD@english?9nz?$AA@ 0046b30c     LIBCMTD:getqloc.obj
 0002:0000b318       ??_C@_0BA@ONHGJCLH@english?9jamaica?$AA@ 0046b318     LIBCMTD:getqloc.obj
 0002:0000b328       ??_C@_0M@HJBGHOPO@english?9ire?$AA@ 0046b328     LIBCMTD:getqloc.obj
 0002:0000b334       ??_C@_0BC@LFEKMIFB@english?9caribbean?$AA@ 0046b334     LIBCMTD:getqloc.obj
 0002:0000b348       ??_C@_0M@OLDPFKHI@english?9can?$AA@ 0046b348     LIBCMTD:getqloc.obj
 0002:0000b354       ??_C@_0P@OMDEHBMP@english?9belize?$AA@ 0046b354     LIBCMTD:getqloc.obj
 0002:0000b364       ??_C@_0M@KFHFPFED@english?9aus?$AA@ 0046b364     LIBCMTD:getqloc.obj
 0002:0000b370       ??_C@_0BB@MNMBKDFE@english?9american?$AA@ 0046b370     LIBCMTD:getqloc.obj
 0002:0000b384       ??_C@_0O@KIDLNNBA@dutch?9belgian?$AA@ 0046b384     LIBCMTD:getqloc.obj
 0002:0000b394       ??_C@_0BE@JBKABBMH@chinese?9traditional?$AA@ 0046b394     LIBCMTD:getqloc.obj
 0002:0000b3a8       ??_C@_0BC@MJJMPKCG@chinese?9singapore?$AA@ 0046b3a8     LIBCMTD:getqloc.obj
 0002:0000b3bc       ??_C@_0BD@FDKADDCP@chinese?9simplified?$AA@ 0046b3bc     LIBCMTD:getqloc.obj
 0002:0000b3d0       ??_C@_0BB@DBEFDDME@chinese?9hongkong?$AA@ 0046b3d0     LIBCMTD:getqloc.obj
 0002:0000b3e4       ??_C@_07DHNMFMCI@chinese?$AA@ 0046b3e4     LIBCMTD:getqloc.obj
 0002:0000b3ec       ??_C@_03FNDDCHI@chi?$AA@   0046b3ec     LIBCMTD:getqloc.obj
 0002:0000b3f0       ??_C@_03BMMIADDJ@chh?$AA@  0046b3f0     LIBCMTD:getqloc.obj
 0002:0000b3f4       ??_C@_08OAIPJDGI@canadian?$AA@ 0046b3f4     LIBCMTD:getqloc.obj
 0002:0000b400       ??_C@_07HBPMNPNJ@belgian?$AA@ 0046b400     LIBCMTD:getqloc.obj
 0002:0000b408       ??_C@_0L@OEKOPBEL@australian?$AA@ 0046b408     LIBCMTD:getqloc.obj
 0002:0000b414       ??_C@_0BB@MEIMBEDG@american?9english?$AA@ 0046b414     LIBCMTD:getqloc.obj
 0002:0000b428       ??_C@_0BB@DFMDPDGB@american?5english?$AA@ 0046b428     LIBCMTD:getqloc.obj
 0002:0000b43c       ??_C@_08IJLOKOLL@american?$AA@ 0046b43c     LIBCMTD:getqloc.obj
 0002:0000b448       ___rg_language             0046b448     LIBCMTD:getqloc.obj
 0002:0000b650       ___rg_country              0046b650     LIBCMTD:getqloc.obj
 0002:0000b708       ___rglangidNotDefault      0046b708     LIBCMTD:getqloc.obj
 0002:0000b71c       ??_C@_0BC@NFIEMBLL@Norwegian?9Nynorsk?$AA@ 0046b71c     LIBCMTD:getqloc.obj
 0002:0000b730       ??_C@_1OM@OECHDGCF@?$AAs?$AAt?$AAr?$AAc?$AAp?$AAy?$AA_?$AAs?$AA?$CI?$AAl?$AAp?$AAO?$AAu?$AAt?$AAS?$AAt?$AAr?$AA?9?$AA?$DO?$AAs?$AAz?$AAL?$AAa?$AAn?$AAg?$AAu?$AAa?$AAg?$AAe?$AA?0?$AA?5?$AA?$CI@ 0046b730     LIBCMTD:getqloc.obj
 0002:0000b81c       ??_C@_1CO@NJACLALJ@?$AA_?$AA_?$AAg?$AAe?$AAt?$AA_?$AAq?$AAu?$AAa?$AAl?$AAi?$AAf?$AAi?$AAe?$AAd?$AA_?$AAl?$AAo?$AAc?$AAa?$AAl?$AAe?$AA?$AA@ 0046b81c     LIBCMTD:getqloc.obj
 0002:0000b850       ??_C@_1GC@FECJGAE@?$AAf?$AA?3?$AA?2?$AAd?$AAd?$AA?2?$AAv?$AAc?$AAt?$AAo?$AAo?$AAl?$AAs?$AA?2?$AAc?$AAr?$AAt?$AA_?$AAb?$AAl?$AAd?$AA?2?$AAs?$AAe?$AAl?$AAf?$AA_?$AAx?$AA8?$AA6?$AA?2?$AAc@ 0046b850     LIBCMTD:getqloc.obj
 0002:0000b8b4       ??_C@_03NFKLAGEF@OCP?$AA@  0046b8b4     LIBCMTD:getqloc.obj
 0002:0000b8b8       ??_C@_03DFHEHBHG@ACP?$AA@  0046b8b8     LIBCMTD:getqloc.obj
 0002:0000b8bc       ??_C@_1BA@PCFLFGNC@?$AAw?$AAc?$AAs?$AAt?$AAo?$AAx?$AAl?$AA?$AA@ 0046b8bc     LIBCMTD:wcstol.obj
 0002:0000b8d0       ??_C@_1GA@CADFOND@?$AAf?$AA?3?$AA?2?$AAd?$AAd?$AA?2?$AAv?$AAc?$AAt?$AAo?$AAo?$AAl?$AAs?$AA?2?$AAc?$AAr?$AAt?$AA_?$AAb?$AAl?$AAd?$AA?2?$AAs?$AAe?$AAl?$AAf?$AA_?$AAx?$AA8?$AA6?$AA?2?$AAc@ 0046b8d0     LIBCMTD:wcstol.obj
 0002:0000b930       ??_C@_0DB@KIKNCIEC@f?3?2dd?2vctools?2crt_bld?2self_x86?2c@ 0046b930     LIBCMTD:osfinfo.obj
 0002:0000b964       ??_C@_1BO@EMBOBGKE@?$AA_?$AAg?$AAe?$AAt?$AA_?$AAo?$AAs?$AAf?$AAh?$AAa?$AAn?$AAd?$AAl?$AAe?$AA?$AA@ 0046b964     LIBCMTD:osfinfo.obj
 0002:0000b988       ??_C@_1GC@MLKLDJJG@?$AAf?$AA?3?$AA?2?$AAd?$AAd?$AA?2?$AAv?$AAc?$AAt?$AAo?$AAo?$AAl?$AAs?$AA?2?$AAc?$AAr?$AAt?$AA_?$AAb?$AAl?$AAd?$AA?2?$AAs?$AAe?$AAl?$AAf?$AA_?$AAx?$AA8?$AA6?$AA?2?$AAc@ 0046b988     LIBCMTD:osfinfo.obj
 0002:0000b9ec       ??_C@_0DB@OLNNDFNH@f?3?2dd?2vctools?2crt_bld?2self_x86?2c@ 0046b9ec     LIBCMTD:_sftbuf.obj
 0002:0000ba20       ??_C@_1GC@DGAFOCMO@?$AAf?$AA?3?$AA?2?$AAd?$AAd?$AA?2?$AAv?$AAc?$AAt?$AAo?$AAo?$AAl?$AAs?$AA?2?$AAc?$AAr?$AAt?$AA_?$AAb?$AAl?$AAd?$AA?2?$AAs?$AAe?$AAl?$AAf?$AA_?$AAx?$AA8?$AA6?$AA?2?$AAc@ 0046ba20     LIBCMTD:_sftbuf.obj
 0002:0000ba84       ??_C@_1CO@KCKAACMI@?$AAf?$AAl?$AAa?$AAg?$AA?5?$AA?$DN?$AA?$DN?$AA?5?$AA0?$AA?5?$AA?$HM?$AA?$HM?$AA?5?$AAf?$AAl?$AAa?$AAg?$AA?5?$AA?$DN?$AA?$DN?$AA?5?$AA1?$AA?$AA@ 0046ba84     LIBCMTD:_sftbuf.obj
 0002:0000bab4       ??_C@_1BO@JGFPDJCP@?$AAv?$AAp?$AAr?$AAi?$AAn?$AAt?$AAf?$AA_?$AAh?$AAe?$AAl?$AAp?$AAe?$AAr?$AA?$AA@ 0046bab4     LIBCMTD:vprintf.obj
 0002:0000bad8       ??_C@_1GC@DHFFJKMC@?$AAf?$AA?3?$AA?2?$AAd?$AAd?$AA?2?$AAv?$AAc?$AAt?$AAo?$AAo?$AAl?$AAs?$AA?2?$AAc?$AAr?$AAt?$AA_?$AAb?$AAl?$AAd?$AA?2?$AAs?$AAe?$AAl?$AAf?$AA_?$AAx?$AA8?$AA6?$AA?2?$AAc@ 0046bad8     LIBCMTD:vprintf.obj
 0002:0000bb3c       ??_C@_1BG@GLLONOEH@?$AA_?$AAs?$AAt?$AAr?$AAi?$AAc?$AAm?$AAp?$AA_?$AAl?$AA?$AA@ 0046bb3c     LIBCMTD:stricmp.obj
 0002:0000bb58       ??_C@_1GC@OILHAOLL@?$AAf?$AA?3?$AA?2?$AAd?$AAd?$AA?2?$AAv?$AAc?$AAt?$AAo?$AAo?$AAl?$AAs?$AA?2?$AAc?$AAr?$AAt?$AA_?$AAb?$AAl?$AAd?$AA?2?$AAs?$AAe?$AAl?$AAf?$AA_?$AAx?$AA8?$AA6?$AA?2?$AAc@ 0046bb58     LIBCMTD:stricmp.obj
 0002:0000bbbc       ??_C@_1BC@JLGKKIIG@?$AA_?$AAs?$AAt?$AAr?$AAi?$AAc?$AAm?$AAp?$AA?$AA@ 0046bbbc     LIBCMTD:stricmp.obj
 0002:0000bbd0       ??_C@_1CC@JLPHKJPH@?$AAc?$AAo?$AAu?$AAn?$AAt?$AA?5?$AA?$DM?$AA?$DN?$AA?5?$AAI?$AAN?$AAT?$AA_?$AAM?$AAA?$AAX?$AA?$AA@ 0046bbd0     LIBCMTD:strnicmp.obj
 0002:0000bbf4       ??_C@_1BI@BJLEPLEF@?$AA_?$AAs?$AAt?$AAr?$AAn?$AAi?$AAc?$AAm?$AAp?$AA_?$AAl?$AA?$AA@ 0046bbf4     LIBCMTD:strnicmp.obj
 0002:0000bc10       ??_C@_1GE@CONPOJMA@?$AAf?$AA?3?$AA?2?$AAd?$AAd?$AA?2?$AAv?$AAc?$AAt?$AAo?$AAo?$AAl?$AAs?$AA?2?$AAc?$AAr?$AAt?$AA_?$AAb?$AAl?$AAd?$AA?2?$AAs?$AAe?$AAl?$AAf?$AA_?$AAx?$AA8?$AA6?$AA?2?$AAc@ 0046bc10     LIBCMTD:strnicmp.obj
 0002:0000bc74       ??_C@_1BE@BHJDFFNA@?$AA_?$AAs?$AAt?$AAr?$AAn?$AAi?$AAc?$AAm?$AAp?$AA?$AA@ 0046bc74     LIBCMTD:strnicmp.obj
 0002:0000bc88       ??_C@_1BA@BALFACEM@?$AAC?$AAO?$AAN?$AAO?$AAU?$AAT?$AA$?$AA?$AA@ 0046bc88     LIBCMTD:initcon.obj
 0002:0000bc98       ??_C@_1O@EGMJNCOI@?$AAf?$AAc?$AAl?$AAo?$AAs?$AAe?$AA?$AA@ 0046bc98     LIBCMTD:fclose.obj
 0002:0000bca8       ??_C@_1GA@KMIDAPAP@?$AAf?$AA?3?$AA?2?$AAd?$AAd?$AA?2?$AAv?$AAc?$AAt?$AAo?$AAo?$AAl?$AAs?$AA?2?$AAc?$AAr?$AAt?$AA_?$AAb?$AAl?$AAd?$AA?2?$AAs?$AAe?$AAl?$AAf?$AA_?$AAx?$AA8?$AA6?$AA?2?$AAc@ 0046bca8     LIBCMTD:fclose.obj
 0002:0000bd08       ??_C@_1BO@JINCABEC@?$AA_?$AAf?$AAc?$AAl?$AAo?$AAs?$AAe?$AA_?$AAn?$AAo?$AAl?$AAo?$AAc?$AAk?$AA?$AA@ 0046bd08     LIBCMTD:fclose.obj
 0002:0000bd28       ??_C@_1DG@LNNHNFHJ@?$AA?$CI?$AA_?$AAo?$AAs?$AAf?$AAi?$AAl?$AAe?$AA?$CI?$AAf?$AAi?$AAl?$AAe?$AAd?$AAe?$AAs?$AA?$CJ?$AA?5?$AA?$CG?$AA?5?$AAF?$AAO?$AAP?$AAE?$AAN?$AA?$CJ?$AA?$AA@ 0046bd28     LIBCMTD:commit.obj
 0002:0000bd60       ??_C@_1BA@FLNMBBIM@?$AA_?$AAc?$AAo?$AAm?$AAm?$AAi?$AAt?$AA?$AA@ 0046bd60     LIBCMTD:commit.obj
 0002:0000bd70       ??_C@_1GA@BOPCOCFN@?$AAf?$AA?3?$AA?2?$AAd?$AAd?$AA?2?$AAv?$AAc?$AAt?$AAo?$AAo?$AAl?$AAs?$AA?2?$AAc?$AAr?$AAt?$AA_?$AAb?$AAl?$AAd?$AA?2?$AAs?$AAe?$AAl?$AAf?$AA_?$AAx?$AA8?$AA6?$AA?2?$AAc@ 0046bd70     LIBCMTD:commit.obj
 0002:0000bdd0       ??_C@_1HC@KFLBHHBC@?$AA?$CI?$AAf?$AAi?$AAl?$AAe?$AAd?$AAe?$AAs?$AA?5?$AA?$DO?$AA?$DN?$AA?5?$AA0?$AA?5?$AA?$CG?$AA?$CG?$AA?5?$AA?$CI?$AAu?$AAn?$AAs?$AAi?$AAg?$AAn?$AAe?$AAd?$AA?$CJ?$AAf?$AAi?$AAl?$AAe?$AAd@ 0046bdd0     LIBCMTD:commit.obj
 0002:0000be44       ??_C@_1O@EDEJGJBM@?$AA_?$AAc?$AAl?$AAo?$AAs?$AAe?$AA?$AA@ 0046be44     LIBCMTD:close.obj
 0002:0000be58       ??_C@_1FO@NNGNFGFH@?$AAf?$AA?3?$AA?2?$AAd?$AAd?$AA?2?$AAv?$AAc?$AAt?$AAo?$AAo?$AAl?$AAs?$AA?2?$AAc?$AAr?$AAt?$AA_?$AAb?$AAl?$AAd?$AA?2?$AAs?$AAe?$AAl?$AAf?$AA_?$AAx?$AA8?$AA6?$AA?2?$AAc@ 0046be58     LIBCMTD:close.obj
 0002:0000beb8       ??_C@_1GE@MIMBMOF@?$AAf?$AA?3?$AA?2?$AAd?$AAd?$AA?2?$AAv?$AAc?$AAt?$AAo?$AAo?$AAl?$AAs?$AA?2?$AAc?$AAr?$AAt?$AA_?$AAb?$AAl?$AAd?$AA?2?$AAs?$AAe?$AAl?$AAf?$AA_?$AAx?$AA8?$AA6?$AA?2?$AAc@ 0046beb8     LIBCMTD:_freebuf.obj
 0002:0000bf1c       ??_C@_1BO@KIJENGPH@?$AAs?$AAt?$AAr?$AAe?$AAa?$AAm?$AA?5?$AA?$CB?$AA?$DN?$AA?5?$AAN?$AAU?$AAL?$AAL?$AA?$AA@ 0046bf1c     LIBCMTD:_freebuf.obj
 0002:0000bf44       ??_7?$basic_filebuf@DU?$char_traits@D@std@@@std@@6B@ 0046bf44     libcpmtd:cout.obj
 0002:0000bf84       ??_7?$basic_streambuf@DU?$char_traits@D@std@@@std@@6B@ 0046bf84     libcpmtd:cout.obj
 0002:0000bfc0       ??_C@_1DC@POOIKBAO@?$AAI?$AAT?$AAE?$AAR?$AAA?$AAT?$AAO?$AAR?$AA?5?$AAL?$AAI?$AAS?$AAT?$AA?5?$AAC?$AAO?$AAR?$AAR?$AAU?$AAP?$AAT?$AAE?$AAD?$AA?$CB?$AA?$AA@ 0046bfc0     libcpmtd:cout.obj
 0002:0000bff8       ??_C@_1GA@IHNGMCBO@?$AAf?$AA?3?$AA?2?$AAd?$AAd?$AA?2?$AAv?$AAc?$AAt?$AAo?$AAo?$AAl?$AAs?$AA?2?$AAc?$AAr?$AAt?$AA_?$AAb?$AAl?$AAd?$AA?2?$AAs?$AAe?$AAl?$AAf?$AA_?$AAx?$AA8?$AA6?$AA?2?$AAc@ 0046bff8     libcpmtd:cout.obj
 0002:0000c058       ?npos@?$basic_string@DU?$char_traits@D@std@@V?$allocator@D@2@@std@@2IB 0046c058     libcpmtd:cout.obj
 0002:0000c05c       ??_C@_0DB@KHHNBPEF@f?3?2dd?2vctools?2crt_bld?2self_x86?2c@ 0046c05c     libcpmtd:cout.obj
 0002:0000c090       ?_Stz@?$fpos@H@std@@0HB    0046c090     libcpmtd:cout.obj
 0002:0000c094       ??_C@_0BA@JFNIOLAK@string?5too?5long?$AA@ 0046c094     libcpmtd:cout.obj
 0002:0000c0a4       ??_C@_0BI@CFPLBAOH@invalid?5string?5position?$AA@ 0046c0a4     libcpmtd:cout.obj
 0002:0000c0bc       ??_C@_1BO@MEPPHOO@?$AA?$CC?$AAo?$AAu?$AAt?$AA?5?$AAo?$AAf?$AA?5?$AAr?$AAa?$AAn?$AAg?$AAe?$AA?$CC?$AA?$AA@ 0046c0bc     libcpmtd:cout.obj
 0002:0000c0e0       ??_C@_1NA@ICLOEHKI@?$AAs?$AAt?$AAd?$AA?3?$AA?3?$AA_?$AAS?$AAt?$AAr?$AAi?$AAn?$AAg?$AA_?$AAc?$AAo?$AAn?$AAs?$AAt?$AA_?$AAi?$AAt?$AAe?$AAr?$AAa?$AAt?$AAo?$AAr?$AA?$DM?$AAc?$AAh?$AAa?$AAr@ 0046c0e0     libcpmtd:cout.obj
 0002:0000c1b0       ??_C@_1FG@IBPIFFN@?$AA?$CC?$AAS?$AAt?$AAa?$AAn?$AAd?$AAa?$AAr?$AAd?$AA?5?$AAC?$AA?$CL?$AA?$CL?$AA?5?$AAL?$AAi?$AAb?$AAr?$AAa?$AAr?$AAi?$AAe?$AAs?$AA?5?$AAO?$AAu?$AAt?$AA?5?$AAo?$AAf?$AA?5?$AAR@ 0046c1b0     libcpmtd:cout.obj
 0002:0000c208       ??_C@_0CE@OFMIGAMM@Standard?5C?$CL?$CL?5Libraries?5Out?5of?5Ra@ 0046c208     libcpmtd:cout.obj
 0002:0000c230       ??_C@_1EG@CNCHLAOB@?$AAs?$AAt?$AAr?$AAi?$AAn?$AAg?$AA?5?$AAi?$AAt?$AAe?$AAr?$AAa?$AAt?$AAo?$AAr?$AA?5?$AAn?$AAo?$AAt?$AA?5?$AAd?$AAe?$AAr?$AAe?$AAf?$AAe?$AAr?$AAe?$AAn?$AAc?$AAa?$AAb@ 0046c230     libcpmtd:cout.obj
 0002:0000c278       ??_C@_1FO@BEGKGBFG@?$AAf?$AA?3?$AA?2?$AAd?$AAd?$AA?2?$AAv?$AAc?$AAt?$AAo?$AAo?$AAl?$AAs?$AA?2?$AAc?$AAr?$AAt?$AA_?$AAb?$AAl?$AAd?$AA?2?$AAs?$AAe?$AAl?$AAf?$AA_?$AAx?$AA8?$AA6?$AA?2?$AAc@ 0046c278     libcpmtd:cout.obj
 0002:0000c2d8       ??_C@_08EPJLHIJG@bad?5cast?$AA@ 0046c2d8     libcpmtd:cout.obj
 0002:0000c2e4       ??_C@_0CP@LEEPMKCL@f?3?2dd?2vctools?2crt_bld?2self_x86?2c@ 0046c2e4     libcpmtd:cout.obj
 0002:0000c314       ??_C@_0BA@ELKIONDK@bad?5locale?5name?$AA@ 0046c314     libcpmtd:cout.obj
 0002:0000c328       ??_7?$codecvt@DDH@std@@6B@ 0046c328     libcpmtd:cout.obj
 0002:0000c34c       ??_7codecvt_base@std@@6B@  0046c34c     libcpmtd:cout.obj
 0002:0000c360       ??_7facet@locale@std@@6B@  0046c360     libcpmtd:cout.obj
 0002:0000c368       ??_7?$basic_ostream@DU?$char_traits@D@std@@@std@@6B@ 0046c368     libcpmtd:cout.obj
 0002:0000c36c       ??_8?$basic_ostream@DU?$char_traits@D@std@@@std@@7B@ 0046c36c     libcpmtd:cout.obj
 0002:0000c378       ??_7?$basic_ios@DU?$char_traits@D@std@@@std@@6B@ 0046c378     libcpmtd:cout.obj
 0002:0000c380       ??_7ios_base@std@@6B@      0046c380     libcpmtd:cout.obj
 0002:0000c384       ??_C@_0DA@FCNFFIFI@f?3?2dd?2vctools?2crt_bld?2self_x86?2c@ 0046c384     libcpmtd:cout.obj
 0002:0000c3b8       ??_7?$ctype@D@std@@6B@     0046c3b8     libcpmtd:cout.obj
 0002:0000c3e0       ??_7ctype_base@std@@6B@    0046c3e0     libcpmtd:cout.obj
 0002:0000c3e8       ??_C@_1FO@KFIODINN@?$AAf?$AA?3?$AA?2?$AAd?$AAd?$AA?2?$AAv?$AAc?$AAt?$AAo?$AAo?$AAl?$AAs?$AA?2?$AAc?$AAr?$AAt?$AA_?$AAb?$AAl?$AAd?$AA?2?$AAs?$AAe?$AAl?$AAf?$AA_?$AAx?$AA8?$AA6?$AA?2?$AAc@ 0046c3e8     libcpmtd:cout.obj
 0002:0000c448       ??_C@_1CK@EOPGIILJ@?$AAi?$AAn?$AAv?$AAa?$AAl?$AAi?$AAd?$AA?5?$AAn?$AAu?$AAl?$AAl?$AA?5?$AAp?$AAo?$AAi?$AAn?$AAt?$AAe?$AAr?$AA?$AA@ 0046c448     libcpmtd:cout.obj
 0002:0000c474       ??_C@_1CO@DGLIKNHI@?$AAi?$AAn?$AAv?$AAa?$AAl?$AAi?$AAd?$AA?5?$AAi?$AAt?$AAe?$AAr?$AAa?$AAt?$AAo?$AAr?$AA?5?$AAr?$AAa?$AAn?$AAg?$AAe?$AA?$AA@ 0046c474     libcpmtd:cout.obj
 0002:0000c4a4       ??_C@_07DCLBNMLN@generic?$AA@ 0046c4a4     libcpmtd:syserror.obj
 0002:0000c4b0       ??_7_Generic_error_category@std@@6B@ 0046c4b0     libcpmtd:syserror.obj
 0002:0000c4cc       ??_7error_category@std@@6B@ 0046c4cc     libcpmtd:syserror.obj
 0002:0000c4e4       ??_C@_08LLGCOLLL@iostream?$AA@ 0046c4e4     libcpmtd:syserror.obj
 0002:0000c4f4       ??_7_Iostream_error_category@std@@6B@ 0046c4f4     libcpmtd:syserror.obj
 0002:0000c50c       ??_C@_0BG@PADBLCHM@iostream?5stream?5error?$AA@ 0046c50c     libcpmtd:syserror.obj
 0002:0000c524       ??_C@_06FHFOAHML@system?$AA@ 0046c524     libcpmtd:syserror.obj
 0002:0000c530       ??_7_System_error_category@std@@6B@ 0046c530     libcpmtd:syserror.obj
 0002:0000c548       ??_C@_0DC@FCEKBFBO@f?3?2dd?2vctools?2crt_bld?2self_x86?2c@ 0046c548     libcpmtd:xmutex.obj
 0002:0000c580       ?_BADOFF@std@@3_JB         0046c580     libcpmtd:ios.obj
 0002:0000c58c       ??_C@_0DD@IMKCHGBE@f?3?2dd?2vctools?2crt_bld?2self_x86?2c@ 0046c58c     libcpmtd:locale0.obj
 0002:0000c5c4       ??_7_Locimp@locale@std@@6B@ 0046c5c4     libcpmtd:locale0.obj
 0002:0000c5c8       ??_C@_0DA@CHOJEIKD@f?3?2dd?2vctools?2crt_bld?2self_x86?2c@ 0046c5c8     libcpmtd:locale0.obj
 0002:0000c5fc       ??_7invalid_argument@std@@6B@ 0046c5fc     libcpmtd:xthrow.obj
 0002:0000c608       ??_7logic_error@std@@6B@   0046c608     libcpmtd:xthrow.obj
 0002:0000c614       ??_7length_error@std@@6B@  0046c614     libcpmtd:xthrow.obj
 0002:0000c620       ??_7out_of_range@std@@6B@  0046c620     libcpmtd:xthrow.obj
 0002:0000c62c       ??_7overflow_error@std@@6B@ 0046c62c     libcpmtd:xthrow.obj
 0002:0000c634       ??_C@_0DC@CFILDBAI@f?3?2dd?2vctools?2crt_bld?2self_x86?2c@ 0046c634     libcpmtd:_tolower.obj
 0002:0000c668       ??_C@_1O@KLNKIMAP@?$AAf?$AAw?$AAr?$AAi?$AAt?$AAe?$AA?$AA@ 0046c668     LIBCMTD:fwrite.obj
 0002:0000c678       ??_C@_1GA@DOFNKKGD@?$AAf?$AA?3?$AA?2?$AAd?$AAd?$AA?2?$AAv?$AAc?$AAt?$AAo?$AAo?$AAl?$AAs?$AA?2?$AAc?$AAr?$AAt?$AA_?$AAb?$AAl?$AAd?$AA?2?$AAs?$AAe?$AAl?$AAf?$AA_?$AAx?$AA8?$AA6?$AA?2?$AAc@ 0046c678     LIBCMTD:fwrite.obj
 0002:0000c6d8       ??_C@_1LG@DCNDJCHK@?$AA?$CI?$AA?$CC?$AAI?$AAn?$AAc?$AAo?$AAn?$AAs?$AAi?$AAs?$AAt?$AAe?$AAn?$AAt?$AA?5?$AAS?$AAt?$AAr?$AAe?$AAa?$AAm?$AA?5?$AAC?$AAo?$AAu?$AAn?$AAt?$AA?4?$AA?5?$AAF?$AAl?$AAu@ 0046c6d8     LIBCMTD:fwrite.obj
 0002:0000c790       ??_C@_1DC@FHEPNAPF@?$AAn?$AAu?$AAm?$AA?5?$AA?$DM?$AA?$DN?$AA?5?$AA?$CI?$AAS?$AAI?$AAZ?$AAE?$AA_?$AAM?$AAA?$AAX?$AA?5?$AA?1?$AA?5?$AAs?$AAi?$AAz?$AAe?$AA?$CJ?$AA?$AA@ 0046c790     LIBCMTD:fwrite.obj
 0002:0000c7c4       ??_C@_1CC@CGFEEBMC@?$AA?$CI?$AAb?$AAu?$AAf?$AAf?$AAe?$AAr?$AA?5?$AA?$CB?$AA?$DN?$AA?5?$AAN?$AAU?$AAL?$AAL?$AA?$CJ?$AA?$AA@ 0046c7c4     LIBCMTD:fwrite.obj
 0002:0000c7e8       ??_C@_1BO@JGPKCBCE@?$AA_?$AAf?$AAw?$AAr?$AAi?$AAt?$AAe?$AA_?$AAn?$AAo?$AAl?$AAo?$AAc?$AAk?$AA?$AA@ 0046c7e8     LIBCMTD:fwrite.obj
 0002:0000c808       ??_C@_1M@OIJMPNCO@?$AAf?$AAp?$AAu?$AAt?$AAc?$AA?$AA@ 0046c808     LIBCMTD:fputc.obj
 0002:0000c818       ??_C@_1FO@CJOPDBGD@?$AAf?$AA?3?$AA?2?$AAd?$AAd?$AA?2?$AAv?$AAc?$AAt?$AAo?$AAo?$AAl?$AAs?$AA?2?$AAc?$AAr?$AAt?$AA_?$AAb?$AAl?$AAd?$AA?2?$AAs?$AAe?$AAl?$AAf?$AA_?$AAx?$AA8?$AA6?$AA?2?$AAc@ 0046c818     LIBCMTD:fputc.obj
 0002:0000c878       ??_C@_19LHKMJKNP@?$AAp?$AAu?$AAt?$AAc?$AA?$AA@ 0046c878     LIBCMTD:fputc.obj
 0002:0000c884       ??_C@_1O@JDPLECOK@?$AAu?$AAn?$AAg?$AAe?$AAt?$AAc?$AA?$AA@ 0046c884     LIBCMTD:ungetc.obj
 0002:0000c898       ??_C@_1GA@OAFAANFO@?$AAf?$AA?3?$AA?2?$AAd?$AAd?$AA?2?$AAv?$AAc?$AAt?$AAo?$AAo?$AAl?$AAs?$AA?2?$AAc?$AAr?$AAt?$AA_?$AAb?$AAl?$AAd?$AA?2?$AAs?$AAe?$AAl?$AAf?$AA_?$AAx?$AA8?$AA6?$AA?2?$AAc@ 0046c898     LIBCMTD:ungetc.obj
 0002:0000c8f8       ??_C@_1BO@OLMLKKEA@?$AA_?$AAu?$AAn?$AAg?$AAe?$AAt?$AAc?$AA_?$AAn?$AAo?$AAl?$AAo?$AAc?$AAk?$AA?$AA@ 0046c8f8     LIBCMTD:ungetc.obj
 0002:0000c918       ??_C@_1HC@OEJDDIIH@?$AAf?$AA?3?$AA?2?$AAd?$AAd?$AA?2?$AAv?$AAc?$AAt?$AAo?$AAo?$AAl?$AAs?$AA?2?$AAc?$AAr?$AAt?$AA_?$AAb?$AAl?$AAd?$AA?2?$AAs?$AAe?$AAl?$AAf?$AA_?$AAx?$AA8?$AA6?$AA?2?$AAc@ 0046c918     LIBCMTD:ungetc.obj
 0002:0000c98c       ??_C@_1M@FBFFFGJE@?$AAf?$AAg?$AAe?$AAt?$AAc?$AA?$AA@ 0046c98c     LIBCMTD:fgetc.obj
 0002:0000c998       ??_C@_1FO@CGIIEKDD@?$AAf?$AA?3?$AA?2?$AAd?$AAd?$AA?2?$AAv?$AAc?$AAt?$AAo?$AAo?$AAl?$AAs?$AA?2?$AAc?$AAr?$AAt?$AA_?$AAb?$AAl?$AAd?$AA?2?$AAs?$AAe?$AAl?$AAf?$AA_?$AAx?$AA8?$AA6?$AA?2?$AAc@ 0046c998     LIBCMTD:fgetc.obj
 0002:0000c9f8       ??_C@_19OGFDBGF@?$AAg?$AAe?$AAt?$AAc?$AA?$AA@ 0046c9f8     LIBCMTD:fgetc.obj
 0002:0000ca04       ??_C@_1BM@IMKAODOM@?$AA?$CI?$AAp?$AAo?$AAs?$AA?5?$AA?$CB?$AA?$DN?$AA?5?$AAN?$AAU?$AAL?$AAL?$AA?$CJ?$AA?$AA@ 0046ca04     LIBCMTD:fgetpos.obj
 0002:0000ca20       ??_C@_1BA@PDKPGILH@?$AAf?$AAg?$AAe?$AAt?$AAp?$AAo?$AAs?$AA?$AA@ 0046ca20     LIBCMTD:fgetpos.obj
 0002:0000ca30       ??_C@_1GC@NMLEJGPF@?$AAf?$AA?3?$AA?2?$AAd?$AAd?$AA?2?$AAv?$AAc?$AAt?$AAo?$AAo?$AAl?$AAs?$AA?2?$AAc?$AAr?$AAt?$AA_?$AAb?$AAl?$AAd?$AA?2?$AAs?$AAe?$AAl?$AAf?$AA_?$AAx?$AA8?$AA6?$AA?2?$AAc@ 0046ca30     LIBCMTD:fgetpos.obj
 0002:0000ca98       ??_C@_1IO@PMHBOLJK@?$AA?$CI?$AA?$CI?$AAw?$AAh?$AAe?$AAn?$AAc?$AAe?$AA?5?$AA?$DN?$AA?$DN?$AA?5?$AAS?$AAE?$AAE?$AAK?$AA_?$AAS?$AAE?$AAT?$AA?$CJ?$AA?5?$AA?$HM?$AA?$HM?$AA?5?$AA?$CI?$AAw?$AAh?$AAe?$AAn?$AAc?$AAe@ 0046ca98     LIBCMTD:fseeki64.obj
 0002:0000cb28       ??_C@_1BE@LFNEFJFD@?$AA_?$AAf?$AAs?$AAe?$AAe?$AAk?$AAi?$AA6?$AA4?$AA?$AA@ 0046cb28     LIBCMTD:fseeki64.obj
 0002:0000cb40       ??_C@_1GE@FPMJBCHH@?$AAf?$AA?3?$AA?2?$AAd?$AAd?$AA?2?$AAv?$AAc?$AAt?$AAo?$AAo?$AAl?$AAs?$AA?2?$AAc?$AAr?$AAt?$AA_?$AAb?$AAl?$AAd?$AA?2?$AAs?$AAe?$AAl?$AAf?$AA_?$AAx?$AA8?$AA6?$AA?2?$AAc@ 0046cb40     LIBCMTD:fseeki64.obj
 0002:0000cba4       ??_C@_1BA@IMLBNLMA@?$AAf?$AAs?$AAe?$AAt?$AAp?$AAo?$AAs?$AA?$AA@ 0046cba4     LIBCMTD:fsetpos.obj
 0002:0000cbb8       ??_C@_1GC@PJLPBNOL@?$AAf?$AA?3?$AA?2?$AAd?$AAd?$AA?2?$AAv?$AAc?$AAt?$AAo?$AAo?$AAl?$AAs?$AA?2?$AAc?$AAr?$AAt?$AA_?$AAb?$AAl?$AAd?$AA?2?$AAs?$AAe?$AAl?$AAf?$AA_?$AAx?$AA8?$AA6?$AA?2?$AAc@ 0046cbb8     LIBCMTD:fsetpos.obj
 0002:0000cc1c       ??_C@_0DB@MIGHMKAN@f?3?2dd?2vctools?2crt_bld?2self_x86?2c@ 0046cc1c     LIBCMTD:setvbuf.obj
 0002:0000cc50       ??_C@_1EG@IJNJIDNB@?$AA?$CI?$AA?$CI?$AA2?$AA?5?$AA?$DM?$AA?$DN?$AA?5?$AAs?$AAi?$AAz?$AAe?$AA?$CJ?$AA?5?$AA?$CG?$AA?$CG?$AA?5?$AA?$CI?$AAs?$AAi?$AAz?$AAe?$AA?5?$AA?$DM?$AA?$DN?$AA?5?$AAI?$AAN?$AAT?$AA_?$AAM?$AAA?$AAX@ 0046cc50     LIBCMTD:setvbuf.obj
 0002:0000cc98       ??_C@_1HC@CBFEDAGG@?$AA?$CI?$AAt?$AAy?$AAp?$AAe?$AA?5?$AA?$DN?$AA?$DN?$AA?5?$AA_?$AAI?$AAO?$AAN?$AAB?$AAF?$AA?$CJ?$AA?5?$AA?$HM?$AA?$HM?$AA?5?$AA?$CI?$AAt?$AAy?$AAp?$AAe?$AA?5?$AA?$DN?$AA?$DN?$AA?5?$AA_?$AAI?$AAO@ 0046cc98     LIBCMTD:setvbuf.obj
 0002:0000cd0c       ??_C@_1BA@OGODIODK@?$AAs?$AAe?$AAt?$AAv?$AAb?$AAu?$AAf?$AA?$AA@ 0046cd0c     LIBCMTD:setvbuf.obj
 0002:0000cd20       ??_C@_1GC@FPPJLAOD@?$AAf?$AA?3?$AA?2?$AAd?$AAd?$AA?2?$AAv?$AAc?$AAt?$AAo?$AAo?$AAl?$AAs?$AA?2?$AAc?$AAr?$AAt?$AA_?$AAb?$AAl?$AAd?$AA?2?$AAs?$AAe?$AAl?$AAf?$AA_?$AAx?$AA8?$AA6?$AA?2?$AAc@ 0046cd20     LIBCMTD:setvbuf.obj
 0002:0000cd88       ??_C@_1GM@HFLCJPGH@?$AAs?$AAt?$AAr?$AAc?$AAp?$AAy?$AA_?$AAs?$AA?$CI?$AAe?$AAr?$AAr?$AAm?$AAs?$AAg?$AA?0?$AA?5?$AA?$CI?$AA9?$AA4?$AA?$CL?$AA3?$AA8?$AA?$CL?$AA2?$AA?$CJ?$AA?0?$AA?5?$AA_?$AAg?$AAe?$AAt@ 0046cd88     LIBCMTD:strerror.obj
 0002:0000cdf4       ??_C@_1BC@CPPAPMCG@?$AAs?$AAt?$AAr?$AAe?$AAr?$AAr?$AAo?$AAr?$AA?$AA@ 0046cdf4     LIBCMTD:strerror.obj
 0002:0000ce08       ??_C@_1GE@IMODLDCP@?$AAf?$AA?3?$AA?2?$AAd?$AAd?$AA?2?$AAv?$AAc?$AAt?$AAo?$AAo?$AAl?$AAs?$AA?2?$AAc?$AAr?$AAt?$AA_?$AAb?$AAl?$AAd?$AA?2?$AAs?$AAe?$AAl?$AAf?$AA_?$AAx?$AA8?$AA6?$AA?2?$AAc@ 0046ce08     LIBCMTD:strerror.obj
 0002:0000ce6c       ??_C@_0DC@PHLJOGAJ@f?3?2dd?2vctools?2crt_bld?2self_x86?2c@ 0046ce6c     LIBCMTD:strerror.obj
 0002:0000cea0       ??_C@_0EA@FCLIIPNN@Visual?5C?$CL?$CL?5CRT?3?5Not?5enough?5memor@ 0046cea0     LIBCMTD:strerror.obj
 0002:0000cee0       ??_C@_1JI@GAHGOJMC@?$AAs?$AAt?$AAr?$AAn?$AAc?$AAp?$AAy?$AA_?$AAs?$AA?$CI?$AAb?$AAu?$AAf?$AAf?$AAe?$AAr?$AA?0?$AA?5?$AAs?$AAi?$AAz?$AAe?$AAI?$AAn?$AAT?$AAC?$AAh?$AAa?$AAr?$AAs?$AA?0?$AA?5@ 0046cee0     LIBCMTD:strerror.obj
 0002:0000cf78       ??_C@_1BG@CLIBDOC@?$AAs?$AAt?$AAr?$AAe?$AAr?$AAr?$AAo?$AAr?$AA_?$AAs?$AA?$AA@ 0046cf78     LIBCMTD:strerror.obj
 0002:0000cf90       ??_C@_1BO@PNINNIGK@?$AAb?$AAu?$AAf?$AAf?$AAe?$AAr?$AA?5?$AA?$CB?$AA?$DN?$AA?5?$AAN?$AAU?$AAL?$AAL?$AA?$AA@ 0046cf90     LIBCMTD:strerror.obj
 0002:0000cfb0       ??_C@_1BA@IIKEPOGH@?$AA_?$AAf?$AAi?$AAl?$AAb?$AAu?$AAf?$AA?$AA@ 0046cfb0     LIBCMTD:_filbuf.obj
 0002:0000cfc0       ??_C@_1GC@CHFNJKFB@?$AAf?$AA?3?$AA?2?$AAd?$AAd?$AA?2?$AAv?$AAc?$AAt?$AAo?$AAo?$AAl?$AAs?$AA?2?$AAc?$AAr?$AAt?$AA_?$AAb?$AAl?$AAd?$AA?2?$AAs?$AAe?$AAl?$AAf?$AA_?$AAx?$AA8?$AA6?$AA?2?$AAc@ 0046cfc0     LIBCMTD:_filbuf.obj
 0002:0000d024       ??_C@_1BE@DHFIIAMO@?$AA_?$AAf?$AAt?$AAe?$AAl?$AAl?$AAi?$AA6?$AA4?$AA?$AA@ 0046d024     LIBCMTD:ftelli64.obj
 0002:0000d038       ??_C@_1GE@GDLBAPK@?$AAf?$AA?3?$AA?2?$AAd?$AAd?$AA?2?$AAv?$AAc?$AAt?$AAo?$AAo?$AAl?$AAs?$AA?2?$AAc?$AAr?$AAt?$AA_?$AAb?$AAl?$AAd?$AA?2?$AAs?$AAe?$AAl?$AAf?$AA_?$AAx?$AA8?$AA6?$AA?2?$AAc@ 0046d038     LIBCMTD:ftelli64.obj
 0002:0000d09c       ??_C@_0BG@KLEAJEFJ@Illegal?5byte?5sequence?$AA@ 0046d09c     LIBCMTD:syserr.obj
 0002:0000d0b4       ??_C@_0BE@ICMCHPHH@Directory?5not?5empty?$AA@ 0046d0b4     LIBCMTD:syserr.obj
 0002:0000d0c8       ??_C@_0BJ@IHEHINLI@Function?5not?5implemented?$AA@ 0046d0c8     LIBCMTD:syserr.obj
 0002:0000d0e4       ??_C@_0BD@CLHBCGPB@No?5locks?5available?$AA@ 0046d0e4     LIBCMTD:syserr.obj
 0002:0000d0f8       ??_C@_0BC@BEDIHIDK@Filename?5too?5long?$AA@ 0046d0f8     LIBCMTD:syserr.obj
 0002:0000d10c       ??_C@_0BK@JAEBMJJM@Resource?5deadlock?5avoided?$AA@ 0046d10c     LIBCMTD:syserr.obj
 0002:0000d128       ??_C@_0BB@FCBJFCAJ@Result?5too?5large?$AA@ 0046d128     LIBCMTD:syserr.obj
 0002:0000d13c       ??_C@_0N@MMJPGLJK@Domain?5error?$AA@ 0046d13c     LIBCMTD:syserr.obj
 0002:0000d14c       ??_C@_0M@LHEPIIOM@Broken?5pipe?$AA@ 0046d14c     LIBCMTD:syserr.obj
 0002:0000d158       ??_C@_0P@PKCJJLLM@Too?5many?5links?$AA@ 0046d158     LIBCMTD:syserr.obj
 0002:0000d168       ??_C@_0BG@DDBFNKBH@Read?9only?5file?5system?$AA@ 0046d168     LIBCMTD:syserr.obj
 0002:0000d180       ??_C@_0N@FEHLOILP@Invalid?5seek?$AA@ 0046d180     LIBCMTD:syserr.obj
 0002:0000d190       ??_C@_0BI@FEALHKLD@No?5space?5left?5on?5device?$AA@ 0046d190     LIBCMTD:syserr.obj
 0002:0000d1a8       ??_C@_0P@LFMMIPAE@File?5too?5large?$AA@ 0046d1a8     LIBCMTD:syserr.obj
 0002:0000d1b8       ??_C@_0CE@ONOKNLPF@Inappropriate?5I?1O?5control?5operat@ 0046d1b8     LIBCMTD:syserr.obj
 0002:0000d1dc       ??_C@_0BE@INBJMKGG@Too?5many?5open?5files?$AA@ 0046d1dc     LIBCMTD:syserr.obj
 0002:0000d1f0       ??_C@_0BO@IIFBODJE@Too?5many?5open?5files?5in?5system?$AA@ 0046d1f0     LIBCMTD:syserr.obj
 0002:0000d210       ??_C@_0BB@HMGGCEBG@Invalid?5argument?$AA@ 0046d210     LIBCMTD:syserr.obj
 0002:0000d224       ??_C@_0P@NDHGCGKE@Is?5a?5directory?$AA@ 0046d224     LIBCMTD:syserr.obj
 0002:0000d234       ??_C@_0BA@CJBACOOL@Not?5a?5directory?$AA@ 0046d234     LIBCMTD:syserr.obj
 0002:0000d244       ??_C@_0P@NLEIANHE@No?5such?5device?$AA@ 0046d244     LIBCMTD:syserr.obj
 0002:0000d254       ??_C@_0O@OAMDNOCP@Improper?5link?$AA@ 0046d254     LIBCMTD:syserr.obj
 0002:0000d264       ??_C@_0M@NAAJNNGH@File?5exists?$AA@ 0046d264     LIBCMTD:syserr.obj
 0002:0000d270       ??_C@_0BA@BIBLIOEK@Resource?5device?$AA@ 0046d270     LIBCMTD:syserr.obj
 0002:0000d280       ??_C@_0O@NIPGCINC@Unknown?5error?$AA@ 0046d280     LIBCMTD:syserr.obj
 0002:0000d290       ??_C@_0M@LOEHLCJD@Bad?5address?$AA@ 0046d290     LIBCMTD:syserr.obj
 0002:0000d29c       ??_C@_0BC@HFNFNKAI@Permission?5denied?$AA@ 0046d29c     LIBCMTD:syserr.obj
 0002:0000d2b0       ??_C@_0BB@IMDKMPFB@Not?5enough?5space?$AA@ 0046d2b0     LIBCMTD:syserr.obj
 0002:0000d2c4       ??_C@_0CB@EPFKGNAK@Resource?5temporarily?5unavailable@ 0046d2c4     LIBCMTD:syserr.obj
 0002:0000d2e8       ??_C@_0BD@LOHELEP@No?5child?5processes?$AA@ 0046d2e8     LIBCMTD:syserr.obj
 0002:0000d2fc       ??_C@_0BE@NFGDDCEF@Bad?5file?5descriptor?$AA@ 0046d2fc     LIBCMTD:syserr.obj
 0002:0000d310       ??_C@_0BC@HKPNECK@Exec?5format?5error?$AA@ 0046d310     LIBCMTD:syserr.obj
 0002:0000d324       ??_C@_0BC@MFFGCDFL@Arg?5list?5too?5long?$AA@ 0046d324     LIBCMTD:syserr.obj
 0002:0000d338       ??_C@_0BK@DPKMCKJ@No?5such?5device?5or?5address?$AA@ 0046d338     LIBCMTD:syserr.obj
 0002:0000d354       ??_C@_0BD@KKNFOBBD@Input?1output?5error?$AA@ 0046d354     LIBCMTD:syserr.obj
 0002:0000d368       ??_C@_0BK@FJBOAFDK@Interrupted?5function?5call?$AA@ 0046d368     LIBCMTD:syserr.obj
 0002:0000d384       ??_C@_0BA@FKIAIBGA@No?5such?5process?$AA@ 0046d384     LIBCMTD:syserr.obj
 0002:0000d394       ??_C@_0BK@FMDHKPNF@No?5such?5file?5or?5directory?$AA@ 0046d394     LIBCMTD:syserr.obj
 0002:0000d3b0       ??_C@_0BI@BJFCGOHL@Operation?5not?5permitted?$AA@ 0046d3b0     LIBCMTD:syserr.obj
 0002:0000d3c8       ??_C@_08INEPGKHH@No?5error?$AA@ 0046d3c8     LIBCMTD:syserr.obj
 0002:0000d3d4       ??_C@_1CC@HBLPFNKH@?$AA?$CI?$AAc?$AAn?$AAt?$AA?5?$AA?$DM?$AA?$DN?$AA?5?$AAI?$AAN?$AAT?$AA_?$AAM?$AAA?$AAX?$AA?$CJ?$AA?$AA@ 0046d3d4     LIBCMTD:read.obj
 0002:0000d3f8       ??_C@_1M@NHJOLLDM@?$AA_?$AAr?$AAe?$AAa?$AAd?$AA?$AA@ 0046d3f8     LIBCMTD:read.obj
 0002:0000d408       ??_C@_1FM@NGICBHLO@?$AAf?$AA?3?$AA?2?$AAd?$AAd?$AA?2?$AAv?$AAc?$AAt?$AAo?$AAo?$AAl?$AAs?$AA?2?$AAc?$AAr?$AAt?$AA_?$AAb?$AAl?$AAd?$AA?2?$AAs?$AAe?$AAl?$AAf?$AA_?$AAx?$AA8?$AA6?$AA?2?$AAc@ 0046d408     LIBCMTD:read.obj
 0002:0000d464       ??_C@_0CO@CEGKNHEH@f?3?2dd?2vctools?2crt_bld?2self_x86?2c@ 0046d464     LIBCMTD:read.obj
 0002:0000d494       ??_C@_1CG@OHLJHGGK@?$AA?$CI?$AAi?$AAn?$AAp?$AAu?$AAt?$AAb?$AAu?$AAf?$AA?5?$AA?$CB?$AA?$DN?$AA?5?$AAN?$AAU?$AAL?$AAL?$AA?$CJ?$AA?$AA@ 0046d494     LIBCMTD:read.obj
 0002:0000d4bc       ??_C@_1BK@JJBHNDKJ@?$AA_?$AAr?$AAe?$AAa?$AAd?$AA_?$AAn?$AAo?$AAl?$AAo?$AAc?$AAk?$AA?$AA@ 0046d4bc     LIBCMTD:read.obj
 0002:0000d4d8       __load_config_used         0046d4d8     LIBCMTD:loadcfg.obj
 0002:0000fe34       ??_R4CYunStaffFrameWnd@@6BCWindowWnd@DuiLib@@@ 0046fe34     YunStaff.obj
 0002:0000fe4c       ??_R3CYunStaffFrameWnd@@8  0046fe4c     YunStaff.obj
 0002:0000fe60       ??_R2CYunStaffFrameWnd@@8  0046fe60     YunStaff.obj
 0002:0000fe70       ??_R1A@?0A@EA@CYunStaffFrameWnd@@8 0046fe70     YunStaff.obj
 0002:0000fe94       ??_R1A@?0A@EA@CWindowWnd@DuiLib@@8 0046fe94     YunStaff.obj
 0002:0000feb8       ??_R3CWindowWnd@DuiLib@@8  0046feb8     YunStaff.obj
 0002:0000fecc       ??_R2CWindowWnd@DuiLib@@8  0046fecc     YunStaff.obj
 0002:0000fed4       ??_R1BA@?0A@EA@INotifyUI@DuiLib@@8 0046fed4     YunStaff.obj
 0002:0000fef8       ??_R3INotifyUI@DuiLib@@8   0046fef8     YunStaff.obj
 0002:0000ff0c       ??_R2INotifyUI@DuiLib@@8   0046ff0c     YunStaff.obj
 0002:0000ff14       ??_R1A@?0A@EA@INotifyUI@DuiLib@@8 0046ff14     YunStaff.obj
 0002:0000ff38       ??_R4CYunStaffFrameWnd@@6BINotifyUI@DuiLib@@@ 0046ff38     YunStaff.obj
 0002:0000ff50       ??_R4INotifyUI@DuiLib@@6B@ 0046ff50     YunStaff.obj
 0002:0000ff68       ??_R4CDialogBuilderCallbackEx@@6B@ 0046ff68     YunStaff.obj
 0002:0000ff80       ??_R3CDialogBuilderCallbackEx@@8 0046ff80     YunStaff.obj
 0002:0000ff94       ??_R2CDialogBuilderCallbackEx@@8 0046ff94     YunStaff.obj
 0002:0000ffa0       ??_R1A@?0A@EA@CDialogBuilderCallbackEx@@8 0046ffa0     YunStaff.obj
 0002:0000ffc4       ??_R1A@?0A@EA@IDialogBuilderCallback@DuiLib@@8 0046ffc4     YunStaff.obj
 0002:0000ffe8       ??_R3IDialogBuilderCallback@DuiLib@@8 0046ffe8     YunStaff.obj
 0002:0000fffc       ??_R2IDialogBuilderCallback@DuiLib@@8 0046fffc     YunStaff.obj
 0002:00010004       ??_R4IDialogBuilderCallback@DuiLib@@6B@ 00470004     YunStaff.obj
 0002:0001001c       ??_R4ComputerExamineUI@@6BCControlUI@DuiLib@@@ 0047001c     YunStaff.obj
 0002:00010034       ??_R3ComputerExamineUI@@8  00470034     YunStaff.obj
 0002:00010048       ??_R2ComputerExamineUI@@8  00470048     YunStaff.obj
 0002:0001005c       ??_R1A@?0A@EA@ComputerExamineUI@@8 0047005c     YunStaff.obj
 0002:00010080       ??_R1A@?0A@EA@CContainerUI@DuiLib@@8 00470080     YunStaff.obj
 0002:000100a4       ??_R3CContainerUI@DuiLib@@8 004700a4     YunStaff.obj
 0002:000100b8       ??_R2CContainerUI@DuiLib@@8 004700b8     YunStaff.obj
 0002:000100c8       ??_R1A@?0A@EA@CControlUI@DuiLib@@8 004700c8     YunStaff.obj
 0002:000100ec       ??_R3CControlUI@DuiLib@@8  004700ec     YunStaff.obj
 0002:00010100       ??_R2CControlUI@DuiLib@@8  00470100     YunStaff.obj
 0002:00010108       ??_R1CEM@?0A@EA@IContainerUI@DuiLib@@8 00470108     YunStaff.obj
 0002:0001012c       ??_R3IContainerUI@DuiLib@@8 0047012c     YunStaff.obj
 0002:00010140       ??_R2IContainerUI@DuiLib@@8 00470140     YunStaff.obj
 0002:00010148       ??_R1A@?0A@EA@IContainerUI@DuiLib@@8 00470148     YunStaff.obj
 0002:0001016c       ??_R4ComputerExamineUI@@6BIContainerUI@DuiLib@@@ 0047016c     YunStaff.obj
 0002:00010184       ??_R4runtime_error@std@@6B@ 00470184     YunStaff.obj
 0002:0001019c       ??_R3runtime_error@std@@8  0047019c     YunStaff.obj
 0002:000101b0       ??_R2runtime_error@std@@8  004701b0     YunStaff.obj
 0002:000101bc       ??_R1A@?0A@EA@runtime_error@std@@8 004701bc     YunStaff.obj
 0002:000101e0       ??_R1A@?0A@EA@exception@std@@8 004701e0     YunStaff.obj
 0002:00010204       ??_R3exception@std@@8      00470204     YunStaff.obj
 0002:00010218       ??_R2exception@std@@8      00470218     YunStaff.obj
 0002:00010220       ??_R4failure@ios_base@std@@6B@ 00470220     YunStaff.obj
 0002:00010238       ??_R3failure@ios_base@std@@8 00470238     YunStaff.obj
 0002:0001024c       ??_R2failure@ios_base@std@@8 0047024c     YunStaff.obj
 0002:00010260       ??_R1A@?0A@EA@failure@ios_base@std@@8 00470260     YunStaff.obj
 0002:00010284       ??_R1A@?0A@EA@system_error@std@@8 00470284     YunStaff.obj
 0002:000102a8       ??_R3system_error@std@@8   004702a8     YunStaff.obj
 0002:000102bc       ??_R2system_error@std@@8   004702bc     YunStaff.obj
 0002:000102cc       ??_R4system_error@std@@6B@ 004702cc     YunStaff.obj
 0002:000102e4       ??_R4bad_alloc@std@@6B@    004702e4     LIBCMTD:new.obj
 0002:000102f8       ??_R3bad_alloc@std@@8      004702f8     LIBCMTD:new.obj
 0002:00010308       ??_R2bad_alloc@std@@8      00470308     LIBCMTD:new.obj
 0002:00010314       ??_R1A@?0A@EA@bad_alloc@std@@8 00470314     LIBCMTD:new.obj
 0002:00010330       ??_R4type_info@@6B@        00470330     LIBCMTD:typinfo.obj
 0002:00010344       ??_R3type_info@@8          00470344     LIBCMTD:typinfo.obj
 0002:00010354       ??_R2type_info@@8          00470354     LIBCMTD:typinfo.obj
 0002:0001035c       ??_R1A@?0A@EA@type_info@@8 0047035c     LIBCMTD:typinfo.obj
 0002:00010378       ??_R4exception@std@@6B@    00470378     LIBCMTD:stdexcpt.obj
 0002:0001038c       ??_R4bad_cast@std@@6B@     0047038c     LIBCMTD:stdexcpt.obj
 0002:000103a0       ??_R3bad_cast@std@@8       004703a0     LIBCMTD:stdexcpt.obj
 0002:000103b0       ??_R2bad_cast@std@@8       004703b0     LIBCMTD:stdexcpt.obj
 0002:000103bc       ??_R1A@?0A@EA@bad_cast@std@@8 004703bc     LIBCMTD:stdexcpt.obj
 0002:000103d8       ??_R4bad_typeid@std@@6B@   004703d8     LIBCMTD:stdexcpt.obj
 0002:000103ec       ??_R3bad_typeid@std@@8     004703ec     LIBCMTD:stdexcpt.obj
 0002:000103fc       ??_R2bad_typeid@std@@8     004703fc     LIBCMTD:stdexcpt.obj
 0002:00010408       ??_R1A@?0A@EA@bad_typeid@std@@8 00470408     LIBCMTD:stdexcpt.obj
 0002:00010424       ??_R4__non_rtti_object@std@@6B@ 00470424     LIBCMTD:stdexcpt.obj
 0002:00010438       ??_R3__non_rtti_object@std@@8 00470438     LIBCMTD:stdexcpt.obj
 0002:00010448       ??_R2__non_rtti_object@std@@8 00470448     LIBCMTD:stdexcpt.obj
 0002:00010458       ??_R1A@?0A@EA@__non_rtti_object@std@@8 00470458     LIBCMTD:stdexcpt.obj
 0002:00010474       ??_R4bad_exception@std@@6B@ 00470474     LIBCMTD:frame.obj
 0002:00010488       ??_R3bad_exception@std@@8  00470488     LIBCMTD:frame.obj
 0002:00010498       ??_R2bad_exception@std@@8  00470498     LIBCMTD:frame.obj
 0002:000104a4       ??_R1A@?0A@EA@bad_exception@std@@8 004704a4     LIBCMTD:frame.obj
 0002:000104c0       ??_R4?$basic_filebuf@DU?$char_traits@D@std@@@std@@6B@ 004704c0     libcpmtd:cout.obj
 0002:000104d4       ??_R3?$basic_filebuf@DU?$char_traits@D@std@@@std@@8 004704d4     libcpmtd:cout.obj
 0002:000104e4       ??_R2?$basic_filebuf@DU?$char_traits@D@std@@@std@@8 004704e4     libcpmtd:cout.obj
 0002:000104f0       ??_R1A@?0A@EA@?$basic_filebuf@DU?$char_traits@D@std@@@std@@8 004704f0     libcpmtd:cout.obj
 0002:0001050c       ??_R1A@?0A@EA@?$basic_streambuf@DU?$char_traits@D@std@@@std@@8 0047050c     libcpmtd:cout.obj
 0002:00010528       ??_R3?$basic_streambuf@DU?$char_traits@D@std@@@std@@8 00470528     libcpmtd:cout.obj
 0002:00010538       ??_R2?$basic_streambuf@DU?$char_traits@D@std@@@std@@8 00470538     libcpmtd:cout.obj
 0002:00010540       ??_R4?$basic_streambuf@DU?$char_traits@D@std@@@std@@6B@ 00470540     libcpmtd:cout.obj
 0002:00010554       ??_R4?$codecvt@DDH@std@@6B@ 00470554     libcpmtd:cout.obj
 0002:00010568       ??_R3?$codecvt@DDH@std@@8  00470568     libcpmtd:cout.obj
 0002:00010578       ??_R2?$codecvt@DDH@std@@8  00470578     libcpmtd:cout.obj
 0002:00010588       ??_R1A@?0A@EA@?$codecvt@DDH@std@@8 00470588     libcpmtd:cout.obj
 0002:000105a4       ??_R1A@?0A@EA@codecvt_base@std@@8 004705a4     libcpmtd:cout.obj
 0002:000105c0       ??_R3codecvt_base@std@@8   004705c0     libcpmtd:cout.obj
 0002:000105d0       ??_R2codecvt_base@std@@8   004705d0     libcpmtd:cout.obj
 0002:000105dc       ??_R1A@?0A@EA@facet@locale@std@@8 004705dc     libcpmtd:cout.obj
 0002:000105f8       ??_R3facet@locale@std@@8   004705f8     libcpmtd:cout.obj
 0002:00010608       ??_R2facet@locale@std@@8   00470608     libcpmtd:cout.obj
 0002:00010610       ??_R4codecvt_base@std@@6B@ 00470610     libcpmtd:cout.obj
 0002:00010624       ??_R4facet@locale@std@@6B@ 00470624     libcpmtd:cout.obj
 0002:00010638       ??_R4?$basic_ostream@DU?$char_traits@D@std@@@std@@6B@ 00470638     libcpmtd:cout.obj
 0002:0001064c       ??_R3?$basic_ostream@DU?$char_traits@D@std@@@std@@8 0047064c     libcpmtd:cout.obj
 0002:0001065c       ??_R2?$basic_ostream@DU?$char_traits@D@std@@@std@@8 0047065c     libcpmtd:cout.obj
 0002:00010670       ??_R1A@?0A@EA@?$basic_ostream@DU?$char_traits@D@std@@@std@@8 00470670     libcpmtd:cout.obj
 0002:0001068c       ??_R1A@A@3FA@?$basic_ios@DU?$char_traits@D@std@@@std@@8 0047068c     libcpmtd:cout.obj
 0002:000106a8       ??_R3?$basic_ios@DU?$char_traits@D@std@@@std@@8 004706a8     libcpmtd:cout.obj
 0002:000106b8       ??_R2?$basic_ios@DU?$char_traits@D@std@@@std@@8 004706b8     libcpmtd:cout.obj
 0002:000106c8       ??_R1A@?0A@EA@?$basic_ios@DU?$char_traits@D@std@@@std@@8 004706c8     libcpmtd:cout.obj
 0002:000106e4       ??_R1A@?0A@EA@ios_base@std@@8 004706e4     libcpmtd:cout.obj
 0002:00010700       ??_R3ios_base@std@@8       00470700     libcpmtd:cout.obj
 0002:00010710       ??_R2ios_base@std@@8       00470710     libcpmtd:cout.obj
 0002:0001071c       ??_R17?0A@EA@?$_Iosb@H@std@@8 0047071c     libcpmtd:cout.obj
 0002:00010738       ??_R3?$_Iosb@H@std@@8      00470738     libcpmtd:cout.obj
 0002:00010748       ??_R2?$_Iosb@H@std@@8      00470748     libcpmtd:cout.obj
 0002:00010750       ??_R1A@?0A@EA@?$_Iosb@H@std@@8 00470750     libcpmtd:cout.obj
 0002:0001076c       ??_R1A@A@3EA@ios_base@std@@8 0047076c     libcpmtd:cout.obj
 0002:00010788       ??_R17A@3EA@?$_Iosb@H@std@@8 00470788     libcpmtd:cout.obj
 0002:000107a4       ??_R4?$basic_ios@DU?$char_traits@D@std@@@std@@6B@ 004707a4     libcpmtd:cout.obj
 0002:000107b8       ??_R4ios_base@std@@6B@     004707b8     libcpmtd:cout.obj
 0002:000107cc       ??_R4?$ctype@D@std@@6B@    004707cc     libcpmtd:cout.obj
 0002:000107e0       ??_R3?$ctype@D@std@@8      004707e0     libcpmtd:cout.obj
 0002:000107f0       ??_R2?$ctype@D@std@@8      004707f0     libcpmtd:cout.obj
 0002:00010800       ??_R1A@?0A@EA@?$ctype@D@std@@8 00470800     libcpmtd:cout.obj
 0002:0001081c       ??_R1A@?0A@EA@ctype_base@std@@8 0047081c     libcpmtd:cout.obj
 0002:00010838       ??_R3ctype_base@std@@8     00470838     libcpmtd:cout.obj
 0002:00010848       ??_R2ctype_base@std@@8     00470848     libcpmtd:cout.obj
 0002:00010854       ??_R4ctype_base@std@@6B@   00470854     libcpmtd:cout.obj
 0002:00010868       ??_R4_Generic_error_category@std@@6B@ 00470868     libcpmtd:syserror.obj
 0002:0001087c       ??_R3_Generic_error_category@std@@8 0047087c     libcpmtd:syserror.obj
 0002:0001088c       ??_R2_Generic_error_category@std@@8 0047088c     libcpmtd:syserror.obj
 0002:00010898       ??_R1A@?0A@EA@_Generic_error_category@std@@8 00470898     libcpmtd:syserror.obj
 0002:000108b4       ??_R1A@?0A@EA@error_category@std@@8 004708b4     libcpmtd:syserror.obj
 0002:000108d0       ??_R3error_category@std@@8 004708d0     libcpmtd:syserror.obj
 0002:000108e0       ??_R2error_category@std@@8 004708e0     libcpmtd:syserror.obj
 0002:000108e8       ??_R4error_category@std@@6B@ 004708e8     libcpmtd:syserror.obj
 0002:000108fc       ??_R4_Iostream_error_category@std@@6B@ 004708fc     libcpmtd:syserror.obj
 0002:00010910       ??_R3_Iostream_error_category@std@@8 00470910     libcpmtd:syserror.obj
 0002:00010920       ??_R2_Iostream_error_category@std@@8 00470920     libcpmtd:syserror.obj
 0002:0001092c       ??_R1A@?0A@EA@_Iostream_error_category@std@@8 0047092c     libcpmtd:syserror.obj
 0002:00010948       ??_R4_System_error_category@std@@6B@ 00470948     libcpmtd:syserror.obj
 0002:0001095c       ??_R3_System_error_category@std@@8 0047095c     libcpmtd:syserror.obj
 0002:0001096c       ??_R2_System_error_category@std@@8 0047096c     libcpmtd:syserror.obj
 0002:0001097c       ??_R1A@?0A@EA@_System_error_category@std@@8 0047097c     libcpmtd:syserror.obj
 0002:00010998       ??_R4_Locimp@locale@std@@6B@ 00470998     libcpmtd:locale0.obj
 0002:000109ac       ??_R3_Locimp@locale@std@@8 004709ac     libcpmtd:locale0.obj
 0002:000109bc       ??_R2_Locimp@locale@std@@8 004709bc     libcpmtd:locale0.obj
 0002:000109c8       ??_R1A@?0A@EA@_Locimp@locale@std@@8 004709c8     libcpmtd:locale0.obj
 0002:000109e4       ??_R4invalid_argument@std@@6B@ 004709e4     libcpmtd:xthrow.obj
 0002:000109f8       ??_R3invalid_argument@std@@8 004709f8     libcpmtd:xthrow.obj
 0002:00010a08       ??_R2invalid_argument@std@@8 00470a08     libcpmtd:xthrow.obj
 0002:00010a18       ??_R1A@?0A@EA@invalid_argument@std@@8 00470a18     libcpmtd:xthrow.obj
 0002:00010a34       ??_R1A@?0A@EA@logic_error@std@@8 00470a34     libcpmtd:xthrow.obj
 0002:00010a50       ??_R3logic_error@std@@8    00470a50     libcpmtd:xthrow.obj
 0002:00010a60       ??_R2logic_error@std@@8    00470a60     libcpmtd:xthrow.obj
 0002:00010a6c       ??_R4logic_error@std@@6B@  00470a6c     libcpmtd:xthrow.obj
 0002:00010a80       ??_R4length_error@std@@6B@ 00470a80     libcpmtd:xthrow.obj
 0002:00010a94       ??_R3length_error@std@@8   00470a94     libcpmtd:xthrow.obj
 0002:00010aa4       ??_R2length_error@std@@8   00470aa4     libcpmtd:xthrow.obj
 0002:00010ab4       ??_R1A@?0A@EA@length_error@std@@8 00470ab4     libcpmtd:xthrow.obj
 0002:00010ad0       ??_R4out_of_range@std@@6B@ 00470ad0     libcpmtd:xthrow.obj
 0002:00010ae4       ??_R3out_of_range@std@@8   00470ae4     libcpmtd:xthrow.obj
 0002:00010af4       ??_R2out_of_range@std@@8   00470af4     libcpmtd:xthrow.obj
 0002:00010b04       ??_R1A@?0A@EA@out_of_range@std@@8 00470b04     libcpmtd:xthrow.obj
 0002:00010b20       ??_R4overflow_error@std@@6B@ 00470b20     libcpmtd:xthrow.obj
 0002:00010b34       ??_R3overflow_error@std@@8 00470b34     libcpmtd:xthrow.obj
 0002:00010b44       ??_R2overflow_error@std@@8 00470b44     libcpmtd:xthrow.obj
 0002:00010b54       ??_R1A@?0A@EA@overflow_error@std@@8 00470b54     libcpmtd:xthrow.obj
 0002:00010e50       ___safe_se_handler_table   00470e50     <linker-defined>
 0002:0001105c       ___rtc_iaa                 0047105c     LIBCMTD:_initsect_.obj
 0002:00011264       ___rtc_izz                 00471264     LIBCMTD:_initsect_.obj
 0002:00011368       ___rtc_taa                 00471368     LIBCMTD:_initsect_.obj
 0002:00011570       ___rtc_tzz                 00471570     LIBCMTD:_initsect_.obj
 0002:000117b0       __TI4?AVfailure@ios_base@std@@ 004717b0     YunStaff.obj
 0002:000117c4       __CTA4?AVfailure@ios_base@std@@ 004717c4     YunStaff.obj
 0002:000117dc       __CT??_R0?AVfailure@ios_base@std@@@8??0failure@ios_base@std@@QAE@ABV012@@Z20 004717dc     YunStaff.obj
 0002:000117fc       __CT??_R0?AVsystem_error@std@@@8??0system_error@std@@QAE@ABV01@@Z20 004717fc     YunStaff.obj
 0002:0001181c       __CT??_R0?AVruntime_error@std@@@8??0runtime_error@std@@QAE@ABV01@@Z12 0047181c     YunStaff.obj
 0002:0001183c       __CT??_R0?AVexception@std@@@8??0exception@std@@QAE@ABV01@@Z12 0047183c     YunStaff.obj
 0002:0001194c       __TI2?AVbad_alloc@std@@    0047194c     LIBCMTD:new.obj
 0002:0001195c       __CTA2?AVbad_alloc@std@@   0047195c     LIBCMTD:new.obj
 0002:00011968       __CT??_R0?AVbad_alloc@std@@@8??0bad_alloc@std@@QAE@ABV01@@Z12 00471968     LIBCMTD:new.obj
 0002:00011ae4       __TI2?AVbad_exception@std@@ 00471ae4     LIBCMTD:frame.obj
 0002:00011af4       __CTA2?AVbad_exception@std@@ 00471af4     LIBCMTD:frame.obj
 0002:00011b00       __CT??_R0?AVbad_exception@std@@@8??0bad_exception@std@@QAE@ABV01@@Z12 00471b00     LIBCMTD:frame.obj
 0002:00012774       __TI2?AVbad_cast@std@@     00472774     libcpmtd:cout.obj
 0002:000127b0       __CTA2?AVbad_cast@std@@    004727b0     libcpmtd:cout.obj
 0002:000127bc       __CT??_R0?AVbad_cast@std@@@8??0bad_cast@std@@QAE@ABV01@@Z12 004727bc     libcpmtd:cout.obj
 0002:00012814       __TI2?AVruntime_error@std@@ 00472814     libcpmtd:cout.obj
 0002:00012870       __CTA2?AVruntime_error@std@@ 00472870     libcpmtd:cout.obj
 0002:00012bb0       __TI3?AVinvalid_argument@std@@ 00472bb0     libcpmtd:xthrow.obj
 0002:00012bc0       __CTA3?AVinvalid_argument@std@@ 00472bc0     libcpmtd:xthrow.obj
 0002:00012bd0       __CT??_R0?AVinvalid_argument@std@@@8??0invalid_argument@std@@QAE@ABV01@@Z12 00472bd0     libcpmtd:xthrow.obj
 0002:00012bec       __CT??_R0?AVlogic_error@std@@@8??0logic_error@std@@QAE@ABV01@@Z12 00472bec     libcpmtd:xthrow.obj
 0002:00012c08       __TI3?AVlength_error@std@@ 00472c08     libcpmtd:xthrow.obj
 0002:00012c18       __CTA3?AVlength_error@std@@ 00472c18     libcpmtd:xthrow.obj
 0002:00012c28       __CT??_R0?AVlength_error@std@@@8??0length_error@std@@QAE@ABV01@@Z12 00472c28     libcpmtd:xthrow.obj
 0002:00012c44       __TI3?AVout_of_range@std@@ 00472c44     libcpmtd:xthrow.obj
 0002:00012c54       __CTA3?AVout_of_range@std@@ 00472c54     libcpmtd:xthrow.obj
 0002:00012c64       __CT??_R0?AVout_of_range@std@@@8??0out_of_range@std@@QAE@ABV01@@Z12 00472c64     libcpmtd:xthrow.obj
 0002:00012c80       __TI3?AVoverflow_error@std@@ 00472c80     libcpmtd:xthrow.obj
 0002:00012c90       __CTA3?AVoverflow_error@std@@ 00472c90     libcpmtd:xthrow.obj
 0002:00012ca0       __CT??_R0?AVoverflow_error@std@@@8??0overflow_error@std@@QAE@ABV01@@Z12 00472ca0     libcpmtd:xthrow.obj
 0003:00000000       ??_R0?AVCYunStaffFrameWnd@@@8 00474000     YunStaff.obj
 0003:00000028       ??_R0?AVCWindowWnd@DuiLib@@@8 00474028     YunStaff.obj
 0003:00000050       ??_R0?AVINotifyUI@DuiLib@@@8 00474050     YunStaff.obj
 0003:00000078       ??_R0?AVCDialogBuilderCallbackEx@@@8 00474078     YunStaff.obj
 0003:000000a8       ??_R0?AVIDialogBuilderCallback@DuiLib@@@8 004740a8     YunStaff.obj
 0003:000000dc       ??_R0?AVComputerExamineUI@@@8 004740dc     YunStaff.obj
 0003:00000104       ??_R0?AVCContainerUI@DuiLib@@@8 00474104     YunStaff.obj
 0003:0000012c       ??_R0?AVCControlUI@DuiLib@@@8 0047412c     YunStaff.obj
 0003:00000154       ??_R0?AVIContainerUI@DuiLib@@@8 00474154     YunStaff.obj
 0003:0000017c       ??_R0?AVfailure@ios_base@std@@@8 0047417c     YunStaff.obj
 0003:000001a8       ??_R0?AVsystem_error@std@@@8 004741a8     YunStaff.obj
 0003:000001d0       ??_R0?AVruntime_error@std@@@8 004741d0     YunStaff.obj
 0003:000001f8       ??_R0?AVexception@std@@@8  004741f8     YunStaff.obj
 0003:0000021c       ??_R0?AVbad_alloc@std@@@8  0047421c     LIBCMTD:new.obj
 0003:00000238       ___security_cookie         00474238     LIBCMTD:gs_cookie.obj
 0003:0000023c       ___security_cookie_complement 0047423c     LIBCMTD:gs_cookie.obj
 0003:00000240       ??_R0?AVtype_info@@@8      00474240     LIBCMTD:typinfo.obj
 0003:00000260       ??_R0?AVbad_cast@std@@@8   00474260     LIBCMTD:stdexcpt.obj
 0003:0000027c       ??_R0?AVbad_typeid@std@@@8 0047427c     LIBCMTD:stdexcpt.obj
 0003:0000029c       ??_R0?AV__non_rtti_object@std@@@8 0047429c     LIBCMTD:stdexcpt.obj
 0003:000002c0       ___app_type                004742c0     LIBCMTD:wincrt0.obj
 0003:000002c4       ?_RTC_ErrorLevels@@3PAHA   004742c4     LIBCMTD:_error_.obj
 0003:000002e0       ___abort_behavior          004742e0     LIBCMTD:abort.obj
 0003:000002e4       ??_R0?AVbad_exception@std@@@8 004742e4     LIBCMTD:frame.obj
 0003:00000310       ___flsindex                00474310     LIBCMTD:tidtable.obj
 0003:00000314       ___getvalueindex           00474314     LIBCMTD:tidtable.obj
 0003:00000438       __crtDbgFlag               00474438     LIBCMTD:dbgheap.obj
 0003:0000043c       ___crtDebugFillThreshold   0047443c     LIBCMTD:dbgheap.obj
 0003:00000444       __crtBreakAlloc            00474444     LIBCMTD:dbgheap.obj
 0003:0000044c       __crtAssertBusy            0047444c     LIBCMTD:dbgrptt.obj
 0003:00000450       __CrtDbgMode               00474450     LIBCMTD:dbgrptt.obj
 0003:0000045c       __CrtDbgFile               0047445c     LIBCMTD:dbgrptt.obj
 0003:000005e0       ___initialmbcinfo          004745e0     LIBCMTD:mbctype.obj
 0003:00000800       __mbctype                  00474800     LIBCMTD:mbctype.obj
 0003:00000908       __mbcasemap                00474908     LIBCMTD:mbctype.obj
 0003:00000a08       ___ptmbcinfo               00474a08     LIBCMTD:mbctype.obj
 0003:00000b00       ___globallocalestatus      00474b00     LIBCMTD:glstatus.obj
 0003:00000b04       ___clocalestr              00474b04     LIBCMTD:nlsdata2.obj
 0003:00000b08       ___lc_time_c               00474b08     LIBCMTD:nlsdata2.obj
 0003:00000c70       ___initiallocinfo          00474c70     LIBCMTD:nlsdata2.obj
 0003:00000d48       ___ptlocinfo               00474d48     LIBCMTD:nlsdata2.obj
 0003:00000d4c       ___initiallocalestructinfo 00474d4c     LIBCMTD:nlsdata2.obj
 0003:00000d58       ___badioinfo               00474d58     LIBCMTD:ioinit.obj
 0003:00000d98       __pfnAllocHook             00474d98     LIBCMTD:dbghook.obj
 0003:00000da0       __NLG_Destination          00474da0     LIBCMTD:exsup.obj
 0003:00000db0       __cfltcvt_tab              00474db0     LIBCMTD:cmiscdat.obj
 0003:00000dd8       ___lconv_static_decimal    00474dd8     LIBCMTD:lconv.obj
 0003:00000ddc       ___lconv_static_W_decimal  00474ddc     LIBCMTD:lconv.obj
 0003:00000de0       ___lconv_c                 00474de0     LIBCMTD:lconv.obj
 0003:00000e30       ___lconv                   00474e30     LIBCMTD:lconv.obj
 0003:00000e34       __pctype                   00474e34     LIBCMTD:ctype.obj
 0003:00000e38       __pwctype                  00474e38     LIBCMTD:ctype.obj
 0003:00000e40       ___nullstring              00474e40     LIBCMTD:output.obj
 0003:00000e44       ___wnullstring             00474e44     LIBCMTD:output.obj
 0003:00000e50       __iob                      00474e50     LIBCMTD:_file.obj
 0003:000010d0       ___mb_cur_max              004750d0     LIBCMTD:nlsdata1.obj
 0003:000010d4       ___decimal_point           004750d4     LIBCMTD:nlsdata1.obj
 0003:000010d8       ___decimal_point_length    004750d8     LIBCMTD:nlsdata1.obj
 0003:000010e0       __confh                    004750e0     LIBCMTD:initcon.obj
 0003:000010f0       ??_R0?AV?$basic_filebuf@DU?$char_traits@D@std@@@std@@@8 004750f0     libcpmtd:cout.obj
 0003:0000112c       ??_R0?AV?$basic_streambuf@DU?$char_traits@D@std@@@std@@@8 0047512c     libcpmtd:cout.obj
 0003:00001168       ??_R0?AV?$codecvt@DDH@std@@@8 00475168     libcpmtd:cout.obj
 0003:00001188       ??_R0?AVcodecvt_base@std@@@8 00475188     libcpmtd:cout.obj
 0003:000011a8       ??_R0?AVfacet@locale@std@@@8 004751a8     libcpmtd:cout.obj
 0003:000011c8       ??_R0?AV?$basic_ostream@DU?$char_traits@D@std@@@std@@@8 004751c8     libcpmtd:cout.obj
 0003:00001204       ??_R0?AV?$basic_ios@DU?$char_traits@D@std@@@std@@@8 00475204     libcpmtd:cout.obj
 0003:0000123c       ??_R0?AVios_base@std@@@8   0047523c     libcpmtd:cout.obj
 0003:00001258       ??_R0?AV?$_Iosb@H@std@@@8  00475258     libcpmtd:cout.obj
 0003:00001274       ??_R0?AV?$ctype@D@std@@@8  00475274     libcpmtd:cout.obj
 0003:00001290       ??_R0?AUctype_base@std@@@8 00475290     libcpmtd:cout.obj
 0003:000012b0       ??_R0?AV_Generic_error_category@std@@@8 004752b0     libcpmtd:syserror.obj
 0003:000012dc       ??_R0?AVerror_category@std@@@8 004752dc     libcpmtd:syserror.obj
 0003:00001300       ??_R0?AV_Iostream_error_category@std@@@8 00475300     libcpmtd:syserror.obj
 0003:0000132c       ??_R0?AV_System_error_category@std@@@8 0047532c     libcpmtd:syserror.obj
 0003:0000135c       ?_Sync@ios_base@std@@0_NA  0047535c     libcpmtd:ios.obj
 0003:00001360       ??_R0?AV_Locimp@locale@std@@@8 00475360     libcpmtd:locale0.obj
 0003:00001384       ??_R0?AVinvalid_argument@std@@@8 00475384     libcpmtd:xthrow.obj
 0003:000013a8       ??_R0?AVlogic_error@std@@@8 004753a8     libcpmtd:xthrow.obj
 0003:000013c8       ??_R0?AVlength_error@std@@@8 004753c8     libcpmtd:xthrow.obj
 0003:000013e8       ??_R0?AVout_of_range@std@@@8 004753e8     libcpmtd:xthrow.obj
 0003:00001408       ??_R0?AVoverflow_error@std@@@8 00475408     libcpmtd:xthrow.obj
 0003:00001438       ?_PJP_CPP_Copyright@@3PADA 00475438     libcpmtd:iosptrs.obj
 0003:00001498       __sys_errlist              00475498     LIBCMTD:syserr.obj
 0003:00001548       __sys_nerr                 00475548     LIBCMTD:syserr.obj
 0003:00001550       __lookuptrailbytes         00475550     LIBCMTD:read.obj
 0003:00001b94       __aenvptr                  00475b94     LIBCMTD:wincrt0.obj
 0003:00001b98       __wenvptr                  00475b98     LIBCMTD:wincrt0.obj
 0003:00001b9c       ___error_mode              00475b9c     LIBCMTD:wincrt0.obj
 0003:00001ba0       ?_pnhHeap@@3P6AHI@ZA       00475ba0     LIBCMTD:handler.obj
 0003:00001ecc       ?wsprintffp@@3P6AHPADPBDZZA 00475ecc     LIBCMTD:_error_.obj
 0003:00002508       ___pPurecall               00476508     LIBCMTD:inithelp.obj
 0003:0000250c       _gpFlsAlloc                0047650c     LIBCMTD:tidtable.obj
 0003:00002510       _gpFlsGetValue             00476510     LIBCMTD:tidtable.obj
 0003:00002514       _gpFlsSetValue             00476514     LIBCMTD:tidtable.obj
 0003:00002518       _gpFlsFree                 00476518     LIBCMTD:tidtable.obj
 0003:0000251c       ?__pInconsistency@@3P6AXXZA 0047651c     LIBCMTD:hooks.obj
 0003:0000269c       ?_pfnDumpClient@@3P6AXPAXI@ZA 0047669c     LIBCMTD:dbgheap.obj
 0003:000026a4       ___crtDebugCheckCount      004766a4     LIBCMTD:dbgheap.obj
 0003:000026ac       ___pInvalidArgHandler      004766ac     LIBCMTD:invarg.obj
 0003:000026b0       __umaskval                 004766b0     LIBCMTD:crt0dat.obj
 0003:000026b4       ___argc                    004766b4     LIBCMTD:crt0dat.obj
 0003:000026b8       ___argv                    004766b8     LIBCMTD:crt0dat.obj
 0003:000026bc       ___wargv                   004766bc     LIBCMTD:crt0dat.obj
 0003:000026c0       __environ                  004766c0     LIBCMTD:crt0dat.obj
 0003:000026c4       ___initenv                 004766c4     LIBCMTD:crt0dat.obj
 0003:000026c8       __wenviron                 004766c8     LIBCMTD:crt0dat.obj
 0003:000026cc       ___winitenv                004766cc     LIBCMTD:crt0dat.obj
 0003:000026d0       __pgmptr                   004766d0     LIBCMTD:crt0dat.obj
 0003:000026d4       __wpgmptr                  004766d4     LIBCMTD:crt0dat.obj
 0003:000026d8       __exitflag                 004766d8     LIBCMTD:crt0dat.obj
 0003:000026dc       __C_Termination_Done       004766dc     LIBCMTD:crt0dat.obj
 0003:000026e0       __C_Exit_Done              004766e0     LIBCMTD:crt0dat.obj
 0003:00002714       ___mbulinfo                00476714     LIBCMTD:mbctype.obj
 0003:00002720       ___mbcodepage              00476720     LIBCMTD:mbctype.obj
 0003:00002724       ___ismbcodepage            00476724     LIBCMTD:mbctype.obj
 0003:00002728       ___mblcid                  00476728     LIBCMTD:mbctype.obj
 0003:00002838       __crtheap                  00476838     LIBCMTD:heapinit.obj
 0003:0000283c       __newmode                  0047683c     LIBCMTD:_newmode.obj
 0003:0000285c       ?pArgList@UnDecorator@@0PAVReplicator@@A 0047685c     LIBCMTD:undname.obj
 0003:00002860       ?pZNameList@UnDecorator@@0PAVReplicator@@A 00476860     LIBCMTD:undname.obj
 0003:00002864       ?pTemplateArgList@UnDecorator@@0PAVReplicator@@A 00476864     LIBCMTD:undname.obj
 0003:00002868       ?gName@UnDecorator@@0PBDB  00476868     LIBCMTD:undname.obj
 0003:0000286c       ?name@UnDecorator@@0PBDB   0047686c     LIBCMTD:undname.obj
 0003:00002870       ?outputString@UnDecorator@@0PADA 00476870     LIBCMTD:undname.obj
 0003:00002874       ?maxStringLength@UnDecorator@@0HA 00476874     LIBCMTD:undname.obj
 0003:00002878       ?disableFlags@UnDecorator@@0KA 00476878     LIBCMTD:undname.obj
 0003:0000287c       ?m_pGetParameter@UnDecorator@@0P6APADJ@ZA 0047687c     LIBCMTD:undname.obj
 0003:00002880       ?fExplicitTemplateParams@UnDecorator@@0_NA 00476880     LIBCMTD:undname.obj
 0003:00002881       ?fGetTemplateArgumentList@UnDecorator@@0_NA 00476881     LIBCMTD:undname.obj
 0003:000028d8       ?nodes@?1??make@DNameStatusNode@@SAPAV2@W4DNameStatus@@@Z@4PAV2@A 004768d8     LIBCMTD:undname.obj
 0003:00002908       ??_B?1??make@DNameStatusNode@@SAPAV1@W4DNameStatus@@@Z@51 00476908     LIBCMTD:undname.obj
 0003:00002910       ___lconv_static_null       00476910     LIBCMTD:lconv.obj
 0003:00002914       ___lconv_static_W_null     00476914     LIBCMTD:lconv.obj
 0003:0000292c       ___locale_changed          0047692c     LIBCMTD:setlocal.obj
 0003:00002930       __cflush                   00476930     LIBCMTD:_file.obj
 0003:00002938       __stdbuf                   00476938     LIBCMTD:_sftbuf.obj
 0003:00002940       ?_Stinit@?1??_Init@?$basic_filebuf@DU?$char_traits@D@std@@@std@@IAEXPAU_iobuf@@W4_Initfl@23@@Z@4HA 00476940     libcpmtd:cout.obj
 0003:00002944       ?_Psave@?$_Facetptr@V?$codecvt@DDH@std@@@std@@2PBVfacet@locale@2@B 00476944     libcpmtd:cout.obj
 0003:00002948       ?_Psave@?$_Facetptr@V?$ctype@D@std@@@std@@2PBVfacet@locale@2@B 00476948     libcpmtd:cout.obj
 0003:000029b0       ?cout@std@@3V?$basic_ostream@DU?$char_traits@D@std@@@1@A 004769b0     libcpmtd:cout.obj
 0003:00002a00       ?id@?$codecvt@DDH@std@@2V0locale@2@A 00476a00     libcpmtd:cout.obj
 0003:00002a84       ?_Index@ios_base@std@@0HA  00476a84     libcpmtd:ios.obj
 0003:00002ad4       ?_Clocptr@_Locimp@locale@std@@0PAV123@A 00476ad4     libcpmtd:locale0.obj
 0003:00002ad8       ?_Id_cnt@id@locale@std@@0HA 00476ad8     libcpmtd:locale0.obj
 0003:00002adc       ?id@?$ctype@D@std@@2V0locale@2@A 00476adc     libcpmtd:locale0.obj
 0003:00002ae0       ?id@?$codecvt@GDH@std@@2V0locale@2@A 00476ae0     libcpmtd:locale0.obj
 0003:00002ae4       ?id@?$ctype@_W@std@@2V0locale@2@A 00476ae4     libcpmtd:locale0.obj
 0003:00002ae8       ?id@?$codecvt@_WDH@std@@2V0locale@2@A 00476ae8     libcpmtd:locale0.obj
 0003:00002af0       ?id@?$ctype@G@std@@2V0locale@2@A 00476af0     libcpmtd:locale0.obj
 0003:00002af8       ?_Ptr_cin@std@@3PAV?$basic_istream@DU?$char_traits@D@std@@@1@A 00476af8     libcpmtd:iosptrs.obj
 0003:00002afc       ?_Ptr_cout@std@@3PAV?$basic_ostream@DU?$char_traits@D@std@@@1@A 00476afc     libcpmtd:iosptrs.obj
 0003:00002b00       ?_Ptr_cerr@std@@3PAV?$basic_ostream@DU?$char_traits@D@std@@@1@A 00476b00     libcpmtd:iosptrs.obj
 0003:00002b04       ?_Ptr_clog@std@@3PAV?$basic_ostream@DU?$char_traits@D@std@@@1@A 00476b04     libcpmtd:iosptrs.obj
 0003:00002b08       ?_Ptr_wcin@std@@3PAV?$basic_istream@_WU?$char_traits@_W@std@@@1@A 00476b08     libcpmtd:iosptrs.obj
 0003:00002b0c       ?_Ptr_wcout@std@@3PAV?$basic_ostream@_WU?$char_traits@_W@std@@@1@A 00476b0c     libcpmtd:iosptrs.obj
 0003:00002b10       ?_Ptr_wcerr@std@@3PAV?$basic_ostream@_WU?$char_traits@_W@std@@@1@A 00476b10     libcpmtd:iosptrs.obj
 0003:00002b14       ?_Ptr_wclog@std@@3PAV?$basic_ostream@_WU?$char_traits@_W@std@@@1@A 00476b14     libcpmtd:iosptrs.obj
 0003:00002b44       ___piob                    00476b44     <common>
 0003:00002ea0       __bufin                    00476ea0     <common>
 0003:00003ea0       __nstream                  00477ea0     <common>
 0003:00003ea4       ___setlc_active            00477ea4     <common>
 0003:00003eb4       ___unguarded_readlc_active 00477eb4     <common>
 0003:00003eb8       ___sse2_available          00477eb8     <common>
 0003:00003ec4       __debugger_hook_dummy      00477ec4     <common>
 0003:00003ed0       __nhandle                  00477ed0     <common>
 0003:00003f20       ___pioinfo                 00477f20     <common>
 0003:00004020       ___env_initialized         00478020     <common>
 0003:00004030       ___onexitend               00478030     <common>
 0003:00004034       ___onexitbegin             00478034     <common>
 0003:00004038       ___mbctype_initialized     00478038     <common>
 0003:0000403c       __FPinit                   0047803c     <common>
 0003:00004040       ___dyn_tls_init_callback   00478040     <common>
 0003:00004044       __pfnReportHook            00478044     <common>
 0003:00004054       __pReportHookListW         00478054     <common>
 0003:00004058       __pReportHookList          00478058     <common>
 0003:0000405c       __acmdln                   0047805c     <common>
 0003:0000406c       __NoHeapEnableTerminationOnCorruption 0047806c     <common>
 0004:00000000       __IMPORT_DESCRIPTOR_USER32 00479000     user32:USER32.dll
 0004:00000014       __IMPORT_DESCRIPTOR_GDI32  00479014     gdi32:GDI32.dll
 0004:00000028       __IMPORT_DESCRIPTOR_ole32  00479028     ole32:ole32.dll
 0004:0000003c       __IMPORT_DESCRIPTOR_DuiLib_d 0047903c     DuiLib_d:DuiLib_d.dll
 0004:00000050       __IMPORT_DESCRIPTOR_KERNEL32 00479050     kernel32:KERNEL32.dll
 0004:00000064       __NULL_IMPORT_DESCRIPTOR   00479064     user32:USER32.dll
 0004:000005fc       __imp_?PaintBorder@CControlUI@DuiLib@@UAEXPAUHDC__@@@Z 004795fc     DuiLib_d:DuiLib_d.dll
 0004:00000600       __imp_??1CPaintManagerUI@DuiLib@@QAE@XZ 00479600     DuiLib_d:DuiLib_d.dll
 0004:00000604       __imp_?RemoveAt@CContainerUI@DuiLib@@UAE_NH@Z 00479604     DuiLib_d:DuiLib_d.dll
 0004:00000608       __imp_?Remove@CContainerUI@DuiLib@@UAE_NPAVCControlUI@2@@Z 00479608     DuiLib_d:DuiLib_d.dll
 0004:0000060c       __imp_?AddAt@CContainerUI@DuiLib@@UAE_NPAVCControlUI@2@H@Z 0047960c     DuiLib_d:DuiLib_d.dll
 0004:00000610       __imp_?GetCount@CContainerUI@DuiLib@@UBEHXZ 00479610     DuiLib_d:DuiLib_d.dll
 0004:00000614       __imp_?SetItemIndex@CContainerUI@DuiLib@@UAE_NPAVCControlUI@2@H@Z 00479614     DuiLib_d:DuiLib_d.dll
 0004:00000618       __imp_?GetItemIndex@CContainerUI@DuiLib@@UBEHPAVCControlUI@2@@Z 00479618     DuiLib_d:DuiLib_d.dll
 0004:0000061c       __imp_?GetItemAt@CContainerUI@DuiLib@@UBEPAVCControlUI@2@H@Z 0047961c     DuiLib_d:DuiLib_d.dll
 0004:00000620       __imp_?ProcessScrollBar@CContainerUI@DuiLib@@MAEXUtagRECT@@HH@Z 00479620     DuiLib_d:DuiLib_d.dll
 0004:00000624       __imp_?SetFloatPos@CContainerUI@DuiLib@@MAEXH@Z 00479624     DuiLib_d:DuiLib_d.dll
 0004:00000628       __imp_?GetHorizontalScrollBar@CContainerUI@DuiLib@@UBEPAVCScrollBarUI@2@XZ 00479628     DuiLib_d:DuiLib_d.dll
 0004:0000062c       __imp_?GetVerticalScrollBar@CContainerUI@DuiLib@@UBEPAVCScrollBarUI@2@XZ 0047962c     DuiLib_d:DuiLib_d.dll
 0004:00000630       __imp_?EnableScrollBar@CContainerUI@DuiLib@@UAEX_N0@Z 00479630     DuiLib_d:DuiLib_d.dll
 0004:00000634       __imp_?EndRight@CContainerUI@DuiLib@@UAEXXZ 00479634     DuiLib_d:DuiLib_d.dll
 0004:00000638       __imp_?HomeLeft@CContainerUI@DuiLib@@UAEXXZ 00479638     DuiLib_d:DuiLib_d.dll
 0004:0000063c       __imp_?PageRight@CContainerUI@DuiLib@@UAEXXZ 0047963c     DuiLib_d:DuiLib_d.dll
 0004:00000640       __imp_?PageLeft@CContainerUI@DuiLib@@UAEXXZ 00479640     DuiLib_d:DuiLib_d.dll
 0004:00000644       __imp_?LineRight@CContainerUI@DuiLib@@UAEXXZ 00479644     DuiLib_d:DuiLib_d.dll
 0004:00000648       __imp_?MessageLoop@CPaintManagerUI@DuiLib@@SAXXZ 00479648     DuiLib_d:DuiLib_d.dll
 0004:0000064c       __imp_??BCWindowWnd@DuiLib@@QBEPAUHWND__@@XZ 0047964c     DuiLib_d:DuiLib_d.dll
 0004:00000650       __imp_?CenterWindow@CWindowWnd@DuiLib@@QAEXXZ 00479650     DuiLib_d:DuiLib_d.dll
 0004:00000654       __imp_?Create@CWindowWnd@DuiLib@@QAEPAUHWND__@@PAU3@PBDKKHHHHPAUHMENU__@@@Z 00479654     DuiLib_d:DuiLib_d.dll
 0004:00000658       __imp_?SetResourcePath@CPaintManagerUI@DuiLib@@SAXPBD@Z 00479658     DuiLib_d:DuiLib_d.dll
 0004:0000065c       __imp_??HCDuiString@DuiLib@@QBE?AV01@PBD@Z 0047965c     DuiLib_d:DuiLib_d.dll
 0004:00000660       __imp_??1CDuiString@DuiLib@@QAE@XZ 00479660     DuiLib_d:DuiLib_d.dll
 0004:00000664       __imp_??BCDuiString@DuiLib@@QBEPBDXZ 00479664     DuiLib_d:DuiLib_d.dll
 0004:00000668       __imp_?GetInstancePath@CPaintManagerUI@DuiLib@@SA?AVCDuiString@2@XZ 00479668     DuiLib_d:DuiLib_d.dll
 0004:0000066c       __imp_?SetInstance@CPaintManagerUI@DuiLib@@SAXPAUHINSTANCE__@@@Z 0047966c     DuiLib_d:DuiLib_d.dll
 0004:00000670       __imp_??0CPaintManagerUI@DuiLib@@QAE@XZ 00479670     DuiLib_d:DuiLib_d.dll
 0004:00000674       __imp_??0CWindowWnd@DuiLib@@QAE@XZ 00479674     DuiLib_d:DuiLib_d.dll
 0004:00000678       __imp_?GetSuperClassName@CWindowWnd@DuiLib@@MBEPBDXZ 00479678     DuiLib_d:DuiLib_d.dll
 0004:0000067c       __imp_?SelectItem@CTabLayoutUI@DuiLib@@QAE_NH@Z 0047967c     DuiLib_d:DuiLib_d.dll
 0004:00000680       __imp_?FindControl@CPaintManagerUI@DuiLib@@QBEPAVCControlUI@2@PBD@Z 00479680     DuiLib_d:DuiLib_d.dll
 0004:00000684       __imp_?SendMessageA@CWindowWnd@DuiLib@@QAEJIIJ@Z 00479684     DuiLib_d:DuiLib_d.dll
 0004:00000688       __imp_??8CDuiString@DuiLib@@QBE_NPBD@Z 00479688     DuiLib_d:DuiLib_d.dll
 0004:0000068c       __imp_?HandleMessage@CWindowWnd@DuiLib@@MAEJIIJ@Z 0047968c     DuiLib_d:DuiLib_d.dll
 0004:00000690       __imp_?MessageHandler@CPaintManagerUI@DuiLib@@QAE_NIIJAAJ@Z 00479690     DuiLib_d:DuiLib_d.dll
 0004:00000694       __imp_??1CDialogBuilder@DuiLib@@QAE@XZ 00479694     DuiLib_d:DuiLib_d.dll
 0004:00000698       __imp_?AddNotifier@CPaintManagerUI@DuiLib@@QAE_NPAVINotifyUI@2@@Z 00479698     DuiLib_d:DuiLib_d.dll
 0004:0000069c       __imp_?AttachDialog@CPaintManagerUI@DuiLib@@QAE_NPAVCControlUI@2@@Z 0047969c     DuiLib_d:DuiLib_d.dll
 0004:000006a0       __imp_?Create@CDialogBuilder@DuiLib@@QAEPAVCControlUI@2@VSTRINGorID@2@PBDPAVIDialogBuilderCallback@2@PAVCPaintManagerUI@2@PAV32@@Z 004796a0     DuiLib_d:DuiLib_d.dll
 0004:000006a4       __imp_??0CDialogBuilder@DuiLib@@QAE@XZ 004796a4     DuiLib_d:DuiLib_d.dll
 0004:000006a8       __imp_?Init@CPaintManagerUI@DuiLib@@QAEXPAUHWND__@@@Z 004796a8     DuiLib_d:DuiLib_d.dll
 0004:000006ac       __imp_?FindControl@CPaintManagerUI@DuiLib@@QBEPAVCControlUI@2@UtagPOINT@@@Z 004796ac     DuiLib_d:DuiLib_d.dll
 0004:000006b0       __imp_?GetCaptionRect@CPaintManagerUI@DuiLib@@QAEAAUtagRECT@@XZ 004796b0     DuiLib_d:DuiLib_d.dll
 0004:000006b4       __imp_?GetSizeBox@CPaintManagerUI@DuiLib@@QAEAAUtagRECT@@XZ 004796b4     DuiLib_d:DuiLib_d.dll
 0004:000006b8       __imp_?Offset@CDuiRect@DuiLib@@QAEXHH@Z 004796b8     DuiLib_d:DuiLib_d.dll
 0004:000006bc       __imp_??0CDuiRect@DuiLib@@QAE@XZ 004796bc     DuiLib_d:DuiLib_d.dll
 0004:000006c0       __imp_?GetRoundCorner@CPaintManagerUI@DuiLib@@QBE?AUtagSIZE@@XZ 004796c0     DuiLib_d:DuiLib_d.dll
 0004:000006c4       __imp_??0CDuiRect@DuiLib@@QAE@ABUtagRECT@@@Z 004796c4     DuiLib_d:DuiLib_d.dll
 0004:000006c8       __imp_??1CContainerUI@DuiLib@@UAE@XZ 004796c8     DuiLib_d:DuiLib_d.dll
 0004:000006cc       __imp_?RemoveAll@CContainerUI@DuiLib@@UAEXXZ 004796cc     DuiLib_d:DuiLib_d.dll
 0004:000006d0       __imp_?Add@CContainerUI@DuiLib@@UAE_NPAVCControlUI@2@@Z 004796d0     DuiLib_d:DuiLib_d.dll
 0004:000006d4       __imp_??0CContainerUI@DuiLib@@QAE@XZ 004796d4     DuiLib_d:DuiLib_d.dll
 0004:000006d8       __imp_?GetName@CControlUI@DuiLib@@UBE?AVCDuiString@2@XZ 004796d8     DuiLib_d:DuiLib_d.dll
 0004:000006dc       __imp_?SetName@CControlUI@DuiLib@@UAEXPBD@Z 004796dc     DuiLib_d:DuiLib_d.dll
 0004:000006e0       __imp_?GetClass@CContainerUI@DuiLib@@UBEPBDXZ 004796e0     DuiLib_d:DuiLib_d.dll
 0004:000006e4       __imp_?GetInterface@CContainerUI@DuiLib@@UAEPAXPBD@Z 004796e4     DuiLib_d:DuiLib_d.dll
 0004:000006e8       __imp_?GetControlFlags@CControlUI@DuiLib@@UBEIXZ 004796e8     DuiLib_d:DuiLib_d.dll
 0004:000006ec       __imp_?Activate@CControlUI@DuiLib@@UAE_NXZ 004796ec     DuiLib_d:DuiLib_d.dll
 0004:000006f0       __imp_?GetManager@CControlUI@DuiLib@@UBEPAVCPaintManagerUI@2@XZ 004796f0     DuiLib_d:DuiLib_d.dll
 0004:000006f4       __imp_?SetManager@CContainerUI@DuiLib@@UAEXPAVCPaintManagerUI@2@PAVCControlUI@2@_N@Z 004796f4     DuiLib_d:DuiLib_d.dll
 0004:000006f8       __imp_?GetParent@CControlUI@DuiLib@@UBEPAV12@XZ 004796f8     DuiLib_d:DuiLib_d.dll
 0004:000006fc       __imp_?GetText@CControlUI@DuiLib@@UBE?AVCDuiString@2@XZ 004796fc     DuiLib_d:DuiLib_d.dll
 0004:00000700       __imp_?SetText@CControlUI@DuiLib@@UAEXPBD@Z 00479700     DuiLib_d:DuiLib_d.dll
 0004:00000704       __imp_?GetPos@CControlUI@DuiLib@@UBEABUtagRECT@@XZ 00479704     DuiLib_d:DuiLib_d.dll
 0004:00000708       __imp_?SetPos@CContainerUI@DuiLib@@UAEXUtagRECT@@@Z 00479708     DuiLib_d:DuiLib_d.dll
 0004:0000070c       __imp_?GetWidth@CControlUI@DuiLib@@UBEHXZ 0047970c     DuiLib_d:DuiLib_d.dll
 0004:00000710       __imp_?GetHeight@CControlUI@DuiLib@@UBEHXZ 00479710     DuiLib_d:DuiLib_d.dll
 0004:00000714       __imp_?GetX@CControlUI@DuiLib@@UBEHXZ 00479714     DuiLib_d:DuiLib_d.dll
 0004:00000718       __imp_?GetY@CControlUI@DuiLib@@UBEHXZ 00479718     DuiLib_d:DuiLib_d.dll
 0004:0000071c       __imp_?GetPadding@CControlUI@DuiLib@@UBE?AUtagRECT@@XZ 0047971c     DuiLib_d:DuiLib_d.dll
 0004:00000720       __imp_?SetPadding@CControlUI@DuiLib@@UAEXUtagRECT@@@Z 00479720     DuiLib_d:DuiLib_d.dll
 0004:00000724       __imp_?GetFixedXY@CControlUI@DuiLib@@UBE?AUtagSIZE@@XZ 00479724     DuiLib_d:DuiLib_d.dll
 0004:00000728       __imp_?SetFixedXY@CControlUI@DuiLib@@UAEXUtagSIZE@@@Z 00479728     DuiLib_d:DuiLib_d.dll
 0004:0000072c       __imp_?GetFixedWidth@CControlUI@DuiLib@@UBEHXZ 0047972c     DuiLib_d:DuiLib_d.dll
 0004:00000730       __imp_?SetFixedWidth@CControlUI@DuiLib@@UAEXH@Z 00479730     DuiLib_d:DuiLib_d.dll
 0004:00000734       __imp_?GetFixedHeight@CControlUI@DuiLib@@UBEHXZ 00479734     DuiLib_d:DuiLib_d.dll
 0004:00000738       __imp_?SetFixedHeight@CControlUI@DuiLib@@UAEXH@Z 00479738     DuiLib_d:DuiLib_d.dll
 0004:0000073c       __imp_?GetMinWidth@CControlUI@DuiLib@@UBEHXZ 0047973c     DuiLib_d:DuiLib_d.dll
 0004:00000740       __imp_?SetMinWidth@CControlUI@DuiLib@@UAEXH@Z 00479740     DuiLib_d:DuiLib_d.dll
 0004:00000744       __imp_?GetMaxWidth@CControlUI@DuiLib@@UBEHXZ 00479744     DuiLib_d:DuiLib_d.dll
 0004:00000748       __imp_?SetMaxWidth@CControlUI@DuiLib@@UAEXH@Z 00479748     DuiLib_d:DuiLib_d.dll
 0004:0000074c       __imp_?GetMinHeight@CControlUI@DuiLib@@UBEHXZ 0047974c     DuiLib_d:DuiLib_d.dll
 0004:00000750       __imp_?SetMinHeight@CControlUI@DuiLib@@UAEXH@Z 00479750     DuiLib_d:DuiLib_d.dll
 0004:00000754       __imp_?GetMaxHeight@CControlUI@DuiLib@@UBEHXZ 00479754     DuiLib_d:DuiLib_d.dll
 0004:00000758       __imp_?SetMaxHeight@CControlUI@DuiLib@@UAEXH@Z 00479758     DuiLib_d:DuiLib_d.dll
 0004:0000075c       __imp_?SetRelativePos@CControlUI@DuiLib@@UAEXUtagSIZE@@0@Z 0047975c     DuiLib_d:DuiLib_d.dll
 0004:00000760       __imp_?SetRelativeParentSize@CControlUI@DuiLib@@UAEXUtagSIZE@@@Z 00479760     DuiLib_d:DuiLib_d.dll
 0004:00000764       __imp_?GetRelativePos@CControlUI@DuiLib@@UBE?AUtagTRelativePosUI@2@XZ 00479764     DuiLib_d:DuiLib_d.dll
 0004:00000768       __imp_?IsRelativePos@CControlUI@DuiLib@@UBE_NXZ 00479768     DuiLib_d:DuiLib_d.dll
 0004:0000076c       __imp_?GetToolTip@CControlUI@DuiLib@@UBE?AVCDuiString@2@XZ 0047976c     DuiLib_d:DuiLib_d.dll
 0004:00000770       __imp_?SetToolTip@CControlUI@DuiLib@@UAEXPBD@Z 00479770     DuiLib_d:DuiLib_d.dll
 0004:00000774       __imp_?GetShortcut@CControlUI@DuiLib@@UBEDXZ 00479774     DuiLib_d:DuiLib_d.dll
 0004:00000778       __imp_?SetShortcut@CControlUI@DuiLib@@UAEXD@Z 00479778     DuiLib_d:DuiLib_d.dll
 0004:0000077c       __imp_?IsContextMenuUsed@CControlUI@DuiLib@@UBE_NXZ 0047977c     DuiLib_d:DuiLib_d.dll
 0004:00000780       __imp_?SetContextMenuUsed@CControlUI@DuiLib@@UAEX_N@Z 00479780     DuiLib_d:DuiLib_d.dll
 0004:00000784       __imp_?GetUserData@CControlUI@DuiLib@@UAEABVCDuiString@2@XZ 00479784     DuiLib_d:DuiLib_d.dll
 0004:00000788       __imp_?SetUserData@CControlUI@DuiLib@@UAEXPBD@Z 00479788     DuiLib_d:DuiLib_d.dll
 0004:0000078c       __imp_?GetTag@CControlUI@DuiLib@@UBEIXZ 0047978c     DuiLib_d:DuiLib_d.dll
 0004:00000790       __imp_?SetTag@CControlUI@DuiLib@@UAEXI@Z 00479790     DuiLib_d:DuiLib_d.dll
 0004:00000794       __imp_?IsVisible@CControlUI@DuiLib@@UBE_NXZ 00479794     DuiLib_d:DuiLib_d.dll
 0004:00000798       __imp_?SetVisible@CContainerUI@DuiLib@@UAEX_N@Z 00479798     DuiLib_d:DuiLib_d.dll
 0004:0000079c       __imp_?SetInternVisible@CContainerUI@DuiLib@@UAEX_N@Z 0047979c     DuiLib_d:DuiLib_d.dll
 0004:000007a0       __imp_?IsEnabled@CControlUI@DuiLib@@UBE_NXZ 004797a0     DuiLib_d:DuiLib_d.dll
 0004:000007a4       __imp_?SetEnabled@CControlUI@DuiLib@@UAEX_N@Z 004797a4     DuiLib_d:DuiLib_d.dll
 0004:000007a8       __imp_?IsMouseEnabled@CControlUI@DuiLib@@UBE_NXZ 004797a8     DuiLib_d:DuiLib_d.dll
 0004:000007ac       __imp_?SetMouseEnabled@CContainerUI@DuiLib@@UAEX_N@Z 004797ac     DuiLib_d:DuiLib_d.dll
 0004:000007b0       __imp_?IsKeyboardEnabled@CControlUI@DuiLib@@UBE_NXZ 004797b0     DuiLib_d:DuiLib_d.dll
 0004:000007b4       __imp_?SetKeyboardEnabled@CControlUI@DuiLib@@UAEX_N@Z 004797b4     DuiLib_d:DuiLib_d.dll
 0004:000007b8       __imp_?IsFocused@CControlUI@DuiLib@@UBE_NXZ 004797b8     DuiLib_d:DuiLib_d.dll
 0004:000007bc       __imp_?SetFocus@CControlUI@DuiLib@@UAEXXZ 004797bc     DuiLib_d:DuiLib_d.dll
 0004:000007c0       __imp_?IsFloat@CControlUI@DuiLib@@UBE_NXZ 004797c0     DuiLib_d:DuiLib_d.dll
 0004:000007c4       __imp_?SetFloat@CControlUI@DuiLib@@UAEX_N@Z 004797c4     DuiLib_d:DuiLib_d.dll
 0004:000007c8       __imp_?FindControl@CContainerUI@DuiLib@@UAEPAVCControlUI@2@P6GPAV32@PAV32@PAX@Z1I@Z 004797c8     DuiLib_d:DuiLib_d.dll
 0004:000007cc       __imp_?Init@CControlUI@DuiLib@@UAEXXZ 004797cc     DuiLib_d:DuiLib_d.dll
 0004:000007d0       __imp_?DoInit@CControlUI@DuiLib@@UAEXXZ 004797d0     DuiLib_d:DuiLib_d.dll
 0004:000007d4       __imp_?Event@CControlUI@DuiLib@@UAEXAAUtagTEventUI@2@@Z 004797d4     DuiLib_d:DuiLib_d.dll
 0004:000007d8       __imp_?DoEvent@CContainerUI@DuiLib@@UAEXAAUtagTEventUI@2@@Z 004797d8     DuiLib_d:DuiLib_d.dll
 0004:000007dc       __imp_?SetAttribute@CContainerUI@DuiLib@@UAEXPBD0@Z 004797dc     DuiLib_d:DuiLib_d.dll
 0004:000007e0       __imp_?EstimateSize@CControlUI@DuiLib@@UAE?AUtagSIZE@@U3@@Z 004797e0     DuiLib_d:DuiLib_d.dll
 0004:000007e4       __imp_?DoPaint@CContainerUI@DuiLib@@UAEXPAUHDC__@@ABUtagRECT@@@Z 004797e4     DuiLib_d:DuiLib_d.dll
 0004:000007e8       __imp_?PaintBkColor@CControlUI@DuiLib@@UAEXPAUHDC__@@@Z 004797e8     DuiLib_d:DuiLib_d.dll
 0004:000007ec       __imp_?PaintBkImage@CControlUI@DuiLib@@UAEXPAUHDC__@@@Z 004797ec     DuiLib_d:DuiLib_d.dll
 0004:000007f0       __imp_?PaintStatusImage@CControlUI@DuiLib@@UAEXPAUHDC__@@@Z 004797f0     DuiLib_d:DuiLib_d.dll
 0004:000007f4       __imp_?PaintText@CControlUI@DuiLib@@UAEXPAUHDC__@@@Z 004797f4     DuiLib_d:DuiLib_d.dll
 0004:000007f8       __imp_?LineLeft@CContainerUI@DuiLib@@UAEXXZ 004797f8     DuiLib_d:DuiLib_d.dll
 0004:000007fc       __imp_?DoPostPaint@CControlUI@DuiLib@@UAEXPAUHDC__@@ABUtagRECT@@@Z 004797fc     DuiLib_d:DuiLib_d.dll
 0004:00000800       __imp_?GetInset@CContainerUI@DuiLib@@UBE?AUtagRECT@@XZ 00479800     DuiLib_d:DuiLib_d.dll
 0004:00000804       __imp_?SetInset@CContainerUI@DuiLib@@UAEXUtagRECT@@@Z 00479804     DuiLib_d:DuiLib_d.dll
 0004:00000808       __imp_?GetChildPadding@CContainerUI@DuiLib@@UBEHXZ 00479808     DuiLib_d:DuiLib_d.dll
 0004:0000080c       __imp_?SetChildPadding@CContainerUI@DuiLib@@UAEXH@Z 0047980c     DuiLib_d:DuiLib_d.dll
 0004:00000810       __imp_?IsAutoDestroy@CContainerUI@DuiLib@@UBE_NXZ 00479810     DuiLib_d:DuiLib_d.dll
 0004:00000814       __imp_?SetAutoDestroy@CContainerUI@DuiLib@@UAEX_N@Z 00479814     DuiLib_d:DuiLib_d.dll
 0004:00000818       __imp_?IsDelayedDestroy@CContainerUI@DuiLib@@UBE_NXZ 00479818     DuiLib_d:DuiLib_d.dll
 0004:0000081c       __imp_?SetDelayedDestroy@CContainerUI@DuiLib@@UAEX_N@Z 0047981c     DuiLib_d:DuiLib_d.dll
 0004:00000820       __imp_?IsMouseChildEnabled@CContainerUI@DuiLib@@UBE_NXZ 00479820     DuiLib_d:DuiLib_d.dll
 0004:00000824       __imp_?SetMouseChildEnabled@CContainerUI@DuiLib@@UAEX_N@Z 00479824     DuiLib_d:DuiLib_d.dll
 0004:00000828       __imp_?FindSelectable@CContainerUI@DuiLib@@UBEHH_N@Z 00479828     DuiLib_d:DuiLib_d.dll
 0004:0000082c       __imp_?GetScrollPos@CContainerUI@DuiLib@@UBE?AUtagSIZE@@XZ 0047982c     DuiLib_d:DuiLib_d.dll
 0004:00000830       __imp_?GetScrollRange@CContainerUI@DuiLib@@UBE?AUtagSIZE@@XZ 00479830     DuiLib_d:DuiLib_d.dll
 0004:00000834       __imp_?SetScrollPos@CContainerUI@DuiLib@@UAEXUtagSIZE@@@Z 00479834     DuiLib_d:DuiLib_d.dll
 0004:00000838       __imp_?LineUp@CContainerUI@DuiLib@@UAEXXZ 00479838     DuiLib_d:DuiLib_d.dll
 0004:0000083c       __imp_?LineDown@CContainerUI@DuiLib@@UAEXXZ 0047983c     DuiLib_d:DuiLib_d.dll
 0004:00000840       __imp_?PageUp@CContainerUI@DuiLib@@UAEXXZ 00479840     DuiLib_d:DuiLib_d.dll
 0004:00000844       __imp_?PageDown@CContainerUI@DuiLib@@UAEXXZ 00479844     DuiLib_d:DuiLib_d.dll
 0004:00000848       __imp_?HomeUp@CContainerUI@DuiLib@@UAEXXZ 00479848     DuiLib_d:DuiLib_d.dll
 0004:0000084c       __imp_?EndDown@CContainerUI@DuiLib@@UAEXXZ 0047984c     DuiLib_d:DuiLib_d.dll
 0004:00000850       \177DuiLib_d_NULL_THUNK_DATA 00479850     DuiLib_d:DuiLib_d.dll
 0004:000008f0       __imp__CreateRoundRectRgn@24 004798f0     gdi32:GDI32.dll
 0004:000008f4       __imp__DeleteObject@4      004798f4     gdi32:GDI32.dll
 0004:000008f8       \177GDI32_NULL_THUNK_DATA  004798f8     gdi32:GDI32.dll
 0004:00000924       __imp__GetConsoleCP@0      00479924     kernel32:KERNEL32.dll
 0004:00000928       __imp__SetFilePointer@16   00479928     kernel32:KERNEL32.dll
 0004:0000092c       __imp__IsProcessorFeaturePresent@4 0047992c     kernel32:KERNEL32.dll
 0004:00000930       __imp__GetConsoleMode@8    00479930     kernel32:KERNEL32.dll
 0004:00000934       __imp__GetLocaleInfoA@16   00479934     kernel32:KERNEL32.dll
 0004:00000938       __imp__IsValidLocale@8     00479938     kernel32:KERNEL32.dll
 0004:0000093c       __imp__EnumSystemLocalesA@8 0047993c     kernel32:KERNEL32.dll
 0004:00000940       __imp__GetUserDefaultLCID@0 00479940     kernel32:KERNEL32.dll
 0004:00000944       __imp__SetStdHandle@8      00479944     kernel32:KERNEL32.dll
 0004:00000948       __imp__CreateFileW@28      00479948     kernel32:KERNEL32.dll
 0004:0000094c       __imp__CloseHandle@4       0047994c     kernel32:KERNEL32.dll
 0004:00000950       __imp__FlushFileBuffers@4  00479950     kernel32:KERNEL32.dll
 0004:00000954       __imp__Sleep@4             00479954     kernel32:KERNEL32.dll
 0004:00000958       __imp__InitializeCriticalSection@4 00479958     kernel32:KERNEL32.dll
 0004:0000095c       __imp__ReadFile@20         0047995c     kernel32:KERNEL32.dll
 0004:00000960       __imp__DecodePointer@4     00479960     kernel32:KERNEL32.dll
 0004:00000964       __imp__EncodePointer@4     00479964     kernel32:KERNEL32.dll
 0004:00000968       __imp__RtlUnwind@16        00479968     kernel32:KERNEL32.dll
 0004:0000096c       __imp__GetModuleFileNameW@12 0047996c     kernel32:KERNEL32.dll
 0004:00000970       __imp__RaiseException@16   00479970     kernel32:KERNEL32.dll
 0004:00000974       __imp__GetCommandLineA@0   00479974     kernel32:KERNEL32.dll
 0004:00000978       __imp__HeapSetInformation@16 00479978     kernel32:KERNEL32.dll
 0004:0000097c       __imp__GetStartupInfoW@4   0047997c     kernel32:KERNEL32.dll
 0004:00000980       __imp__TerminateProcess@8  00479980     kernel32:KERNEL32.dll
 0004:00000984       __imp__GetCurrentProcess@0 00479984     kernel32:KERNEL32.dll
 0004:00000988       __imp__UnhandledExceptionFilter@4 00479988     kernel32:KERNEL32.dll
 0004:0000098c       __imp__SetUnhandledExceptionFilter@4 0047998c     kernel32:KERNEL32.dll
 0004:00000990       __imp__IsDebuggerPresent@0 00479990     kernel32:KERNEL32.dll
 0004:00000994       __imp__WideCharToMultiByte@32 00479994     kernel32:KERNEL32.dll
 0004:00000998       __imp__MultiByteToWideChar@24 00479998     kernel32:KERNEL32.dll
 0004:0000099c       __imp__lstrlenA@4          0047999c     kernel32:KERNEL32.dll
 0004:000009a0       __imp__GetProcAddress@8    004799a0     kernel32:KERNEL32.dll
 0004:000009a4       __imp__LoadLibraryW@4      004799a4     kernel32:KERNEL32.dll
 0004:000009a8       __imp__WriteFile@20        004799a8     kernel32:KERNEL32.dll
 0004:000009ac       __imp__GetStdHandle@4      004799ac     kernel32:KERNEL32.dll
 0004:000009b0       __imp__GetLocaleInfoW@16   004799b0     kernel32:KERNEL32.dll
 0004:000009b4       __imp__GetLastError@0      004799b4     kernel32:KERNEL32.dll
 0004:000009b8       __imp__TlsAlloc@0          004799b8     kernel32:KERNEL32.dll
 0004:000009bc       __imp__TlsGetValue@4       004799bc     kernel32:KERNEL32.dll
 0004:000009c0       __imp__TlsSetValue@8       004799c0     kernel32:KERNEL32.dll
 0004:000009c4       __imp__GetCurrentThreadId@0 004799c4     kernel32:KERNEL32.dll
 0004:000009c8       __imp__TlsFree@4           004799c8     kernel32:KERNEL32.dll
 0004:000009cc       __imp__GetModuleHandleW@4  004799cc     kernel32:KERNEL32.dll
 0004:000009d0       __imp__InterlockedIncrement@4 004799d0     kernel32:KERNEL32.dll
 0004:000009d4       __imp__SetLastError@4      004799d4     kernel32:KERNEL32.dll
 0004:000009d8       __imp__InterlockedDecrement@4 004799d8     kernel32:KERNEL32.dll
 0004:000009dc       __imp__GetCurrentThread@0  004799dc     kernel32:KERNEL32.dll
 0004:000009e0       __imp__InitializeCriticalSectionAndSpinCount@8 004799e0     kernel32:KERNEL32.dll
 0004:000009e4       __imp__DeleteCriticalSection@4 004799e4     kernel32:KERNEL32.dll
 0004:000009e8       __imp__EnterCriticalSection@4 004799e8     kernel32:KERNEL32.dll
 0004:000009ec       __imp__LeaveCriticalSection@4 004799ec     kernel32:KERNEL32.dll
 0004:000009f0       __imp__FatalAppExitA@8     004799f0     kernel32:KERNEL32.dll
 0004:000009f4       __imp__HeapValidate@12     004799f4     kernel32:KERNEL32.dll
 0004:000009f8       __imp__IsBadReadPtr@8      004799f8     kernel32:KERNEL32.dll
 0004:000009fc       __imp__OutputDebugStringA@4 004799fc     kernel32:KERNEL32.dll
 0004:00000a00       __imp__WriteConsoleW@20    00479a00     kernel32:KERNEL32.dll
 0004:00000a04       __imp__GetFileType@4       00479a04     kernel32:KERNEL32.dll
 0004:00000a08       __imp__OutputDebugStringW@4 00479a08     kernel32:KERNEL32.dll
 0004:00000a0c       __imp__ExitProcess@4       00479a0c     kernel32:KERNEL32.dll
 0004:00000a10       __imp__SetConsoleCtrlHandler@8 00479a10     kernel32:KERNEL32.dll
 0004:00000a14       __imp__GetACP@0            00479a14     kernel32:KERNEL32.dll
 0004:00000a18       __imp__GetOEMCP@0          00479a18     kernel32:KERNEL32.dll
 0004:00000a1c       __imp__GetCPInfo@8         00479a1c     kernel32:KERNEL32.dll
 0004:00000a20       __imp__IsValidCodePage@4   00479a20     kernel32:KERNEL32.dll
 0004:00000a24       __imp__QueryPerformanceCounter@4 00479a24     kernel32:KERNEL32.dll
 0004:00000a28       __imp__GetTickCount@0      00479a28     kernel32:KERNEL32.dll
 0004:00000a2c       __imp__GetCurrentProcessId@0 00479a2c     kernel32:KERNEL32.dll
 0004:00000a30       __imp__GetSystemTimeAsFileTime@4 00479a30     kernel32:KERNEL32.dll
 0004:00000a34       __imp__GetModuleFileNameA@12 00479a34     kernel32:KERNEL32.dll
 0004:00000a38       __imp__FreeEnvironmentStringsW@4 00479a38     kernel32:KERNEL32.dll
 0004:00000a3c       __imp__GetEnvironmentStringsW@0 00479a3c     kernel32:KERNEL32.dll
 0004:00000a40       __imp__SetHandleCount@4    00479a40     kernel32:KERNEL32.dll
 0004:00000a44       __imp__HeapCreate@12       00479a44     kernel32:KERNEL32.dll
 0004:00000a48       __imp__HeapDestroy@4       00479a48     kernel32:KERNEL32.dll
 0004:00000a4c       __imp__HeapFree@12         00479a4c     kernel32:KERNEL32.dll
 0004:00000a50       __imp__HeapAlloc@12        00479a50     kernel32:KERNEL32.dll
 0004:00000a54       __imp__GetProcessHeap@0    00479a54     kernel32:KERNEL32.dll
 0004:00000a58       __imp__VirtualQuery@12     00479a58     kernel32:KERNEL32.dll
 0004:00000a5c       __imp__FreeLibrary@4       00479a5c     kernel32:KERNEL32.dll
 0004:00000a60       __imp__HeapReAlloc@16      00479a60     kernel32:KERNEL32.dll
 0004:00000a64       __imp__HeapSize@12         00479a64     kernel32:KERNEL32.dll
 0004:00000a68       __imp__HeapQueryInformation@20 00479a68     kernel32:KERNEL32.dll
 0004:00000a6c       __imp__InterlockedExchange@8 00479a6c     kernel32:KERNEL32.dll
 0004:00000a70       __imp__LCMapStringW@24     00479a70     kernel32:KERNEL32.dll
 0004:00000a74       __imp__GetStringTypeW@16   00479a74     kernel32:KERNEL32.dll
 0004:00000a78       \177KERNEL32_NULL_THUNK_DATA 00479a78     kernel32:KERNEL32.dll
 0004:00000ae8       __imp__ScreenToClient@8    00479ae8     user32:USER32.dll
 0004:00000aec       __imp__PostQuitMessage@4   00479aec     user32:USER32.dll
 0004:00000af0       __imp__SetWindowLongA@12   00479af0     user32:USER32.dll
 0004:00000af4       __imp__MonitorFromWindow@8 00479af4     user32:USER32.dll
 0004:00000af8       __imp__GetMonitorInfoA@8   00479af8     user32:USER32.dll
 0004:00000afc       __imp__GetWindowRect@8     00479afc     user32:USER32.dll
 0004:00000b00       __imp__SetWindowRgn@12     00479b00     user32:USER32.dll
 0004:00000b04       __imp__ShowWindow@8        00479b04     user32:USER32.dll
 0004:00000b08       __imp__GetClientRect@8     00479b08     user32:USER32.dll
 0004:00000b0c       __imp__IsZoomed@4          00479b0c     user32:USER32.dll
 0004:00000b10       __imp__IsIconic@4          00479b10     user32:USER32.dll
 0004:00000b14       __imp__GetWindowLongA@8    00479b14     user32:USER32.dll
 0004:00000b18       \177USER32_NULL_THUNK_DATA 00479b18     user32:USER32.dll
 0004:00000b4c       __imp__CoInitialize@4      00479b4c     ole32:ole32.dll
 0004:00000b50       __imp__CoUninitialize@0    00479b50     ole32:ole32.dll
 0004:00000b54       \177ole32_NULL_THUNK_DATA  00479b54     ole32:ole32.dll

 entry point at        0001:00005910

